ARM GAS  /tmp/ccEleut3.s 			page 1


   1              		.cpu cortex-m0
   2              		.eabi_attribute 20, 1
   3              		.eabi_attribute 21, 1
   4              		.eabi_attribute 23, 3
   5              		.eabi_attribute 24, 1
   6              		.eabi_attribute 25, 1
   7              		.eabi_attribute 26, 1
   8              		.eabi_attribute 30, 1
   9              		.eabi_attribute 34, 0
  10              		.eabi_attribute 18, 4
  11              		.file	"gpio.c"
  12              		.text
  13              	.Ltext0:
  14              		.cfi_sections	.debug_frame
  15              		.section	.text.MX_GPIO_Init,"ax",%progbits
  16              		.align	1
  17              		.global	MX_GPIO_Init
  18              		.arch armv6s-m
  19              		.syntax unified
  20              		.code	16
  21              		.thumb_func
  22              		.fpu softvfp
  24              	MX_GPIO_Init:
  25              	.LFB40:
  26              		.file 1 "Core/Src/gpio.c"
   1:Core/Src/gpio.c **** /* USER CODE BEGIN Header */
   2:Core/Src/gpio.c **** /**
   3:Core/Src/gpio.c ****   ******************************************************************************
   4:Core/Src/gpio.c ****   * @file    gpio.c
   5:Core/Src/gpio.c ****   * @brief   This file provides code for the configuration
   6:Core/Src/gpio.c ****   *          of all used GPIO pins.
   7:Core/Src/gpio.c ****   ******************************************************************************
   8:Core/Src/gpio.c ****   * @attention
   9:Core/Src/gpio.c ****   *
  10:Core/Src/gpio.c ****   * Copyright (c) 2024 STMicroelectronics.
  11:Core/Src/gpio.c ****   * All rights reserved.
  12:Core/Src/gpio.c ****   *
  13:Core/Src/gpio.c ****   * This software is licensed under terms that can be found in the LICENSE file
  14:Core/Src/gpio.c ****   * in the root directory of this software component.
  15:Core/Src/gpio.c ****   * If no LICENSE file comes with this software, it is provided AS-IS.
  16:Core/Src/gpio.c ****   *
  17:Core/Src/gpio.c ****   ******************************************************************************
  18:Core/Src/gpio.c ****   */
  19:Core/Src/gpio.c **** /* USER CODE END Header */
  20:Core/Src/gpio.c **** 
  21:Core/Src/gpio.c **** /* Includes ------------------------------------------------------------------*/
  22:Core/Src/gpio.c **** #include "gpio.h"
  23:Core/Src/gpio.c **** 
  24:Core/Src/gpio.c **** /* USER CODE BEGIN 0 */
  25:Core/Src/gpio.c **** 
  26:Core/Src/gpio.c **** /* USER CODE END 0 */
  27:Core/Src/gpio.c **** 
  28:Core/Src/gpio.c **** /*----------------------------------------------------------------------------*/
  29:Core/Src/gpio.c **** /* Configure GPIO                                                             */
  30:Core/Src/gpio.c **** /*----------------------------------------------------------------------------*/
  31:Core/Src/gpio.c **** /* USER CODE BEGIN 1 */
  32:Core/Src/gpio.c **** 
ARM GAS  /tmp/ccEleut3.s 			page 2


  33:Core/Src/gpio.c **** /* USER CODE END 1 */
  34:Core/Src/gpio.c **** 
  35:Core/Src/gpio.c **** /** Configure pins as
  36:Core/Src/gpio.c ****         * Analog
  37:Core/Src/gpio.c ****         * Input
  38:Core/Src/gpio.c ****         * Output
  39:Core/Src/gpio.c ****         * EVENT_OUT
  40:Core/Src/gpio.c ****         * EXTI
  41:Core/Src/gpio.c **** */
  42:Core/Src/gpio.c **** void MX_GPIO_Init(void)
  43:Core/Src/gpio.c **** {
  27              		.loc 1 43 1 view -0
  28              		.cfi_startproc
  29              		@ args = 0, pretend = 0, frame = 40
  30              		@ frame_needed = 0, uses_anonymous_args = 0
  31 0000 30B5     		push	{r4, r5, lr}
  32              	.LCFI0:
  33              		.cfi_def_cfa_offset 12
  34              		.cfi_offset 4, -12
  35              		.cfi_offset 5, -8
  36              		.cfi_offset 14, -4
  37 0002 8BB0     		sub	sp, sp, #44
  38              	.LCFI1:
  39              		.cfi_def_cfa_offset 56
  44:Core/Src/gpio.c **** 
  45:Core/Src/gpio.c ****   GPIO_InitTypeDef GPIO_InitStruct = {0};
  40              		.loc 1 45 3 view .LVU1
  41              		.loc 1 45 20 is_stmt 0 view .LVU2
  42 0004 1422     		movs	r2, #20
  43 0006 0021     		movs	r1, #0
  44 0008 05A8     		add	r0, sp, #20
  45 000a FFF7FEFF 		bl	memset
  46              	.LVL0:
  46:Core/Src/gpio.c **** 
  47:Core/Src/gpio.c ****   /* GPIO Ports Clock Enable */
  48:Core/Src/gpio.c ****   __HAL_RCC_GPIOF_CLK_ENABLE();
  47              		.loc 1 48 3 is_stmt 1 view .LVU3
  48              	.LBB2:
  49              		.loc 1 48 3 view .LVU4
  50              		.loc 1 48 3 view .LVU5
  51 000e 204B     		ldr	r3, .L2
  52 0010 5969     		ldr	r1, [r3, #20]
  53 0012 8020     		movs	r0, #128
  54 0014 C003     		lsls	r0, r0, #15
  55 0016 0143     		orrs	r1, r0
  56 0018 5961     		str	r1, [r3, #20]
  57              		.loc 1 48 3 view .LVU6
  58 001a 5A69     		ldr	r2, [r3, #20]
  59 001c 0240     		ands	r2, r0
  60 001e 0192     		str	r2, [sp, #4]
  61              		.loc 1 48 3 view .LVU7
  62 0020 019A     		ldr	r2, [sp, #4]
  63              	.LBE2:
  64              		.loc 1 48 3 view .LVU8
  49:Core/Src/gpio.c ****   __HAL_RCC_GPIOA_CLK_ENABLE();
  65              		.loc 1 49 3 view .LVU9
  66              	.LBB3:
ARM GAS  /tmp/ccEleut3.s 			page 3


  67              		.loc 1 49 3 view .LVU10
  68              		.loc 1 49 3 view .LVU11
  69 0022 5969     		ldr	r1, [r3, #20]
  70 0024 8020     		movs	r0, #128
  71 0026 8002     		lsls	r0, r0, #10
  72 0028 0143     		orrs	r1, r0
  73 002a 5961     		str	r1, [r3, #20]
  74              		.loc 1 49 3 view .LVU12
  75 002c 5A69     		ldr	r2, [r3, #20]
  76 002e 0240     		ands	r2, r0
  77 0030 0292     		str	r2, [sp, #8]
  78              		.loc 1 49 3 view .LVU13
  79 0032 029A     		ldr	r2, [sp, #8]
  80              	.LBE3:
  81              		.loc 1 49 3 view .LVU14
  50:Core/Src/gpio.c ****   __HAL_RCC_GPIOC_CLK_ENABLE();
  82              		.loc 1 50 3 view .LVU15
  83              	.LBB4:
  84              		.loc 1 50 3 view .LVU16
  85              		.loc 1 50 3 view .LVU17
  86 0034 5969     		ldr	r1, [r3, #20]
  87 0036 8020     		movs	r0, #128
  88 0038 0003     		lsls	r0, r0, #12
  89 003a 0143     		orrs	r1, r0
  90 003c 5961     		str	r1, [r3, #20]
  91              		.loc 1 50 3 view .LVU18
  92 003e 5A69     		ldr	r2, [r3, #20]
  93 0040 0240     		ands	r2, r0
  94 0042 0392     		str	r2, [sp, #12]
  95              		.loc 1 50 3 view .LVU19
  96 0044 039A     		ldr	r2, [sp, #12]
  97              	.LBE4:
  98              		.loc 1 50 3 view .LVU20
  51:Core/Src/gpio.c ****   __HAL_RCC_GPIOB_CLK_ENABLE();
  99              		.loc 1 51 3 view .LVU21
 100              	.LBB5:
 101              		.loc 1 51 3 view .LVU22
 102              		.loc 1 51 3 view .LVU23
 103 0046 5A69     		ldr	r2, [r3, #20]
 104 0048 8021     		movs	r1, #128
 105 004a C902     		lsls	r1, r1, #11
 106 004c 0A43     		orrs	r2, r1
 107 004e 5A61     		str	r2, [r3, #20]
 108              		.loc 1 51 3 view .LVU24
 109 0050 5B69     		ldr	r3, [r3, #20]
 110 0052 0B40     		ands	r3, r1
 111 0054 0493     		str	r3, [sp, #16]
 112              		.loc 1 51 3 view .LVU25
 113 0056 049B     		ldr	r3, [sp, #16]
 114              	.LBE5:
 115              		.loc 1 51 3 view .LVU26
  52:Core/Src/gpio.c **** 
  53:Core/Src/gpio.c ****   /*Configure GPIO pin Output Level */
  54:Core/Src/gpio.c ****   HAL_GPIO_WritePin(LED_GPIO_Port, LED_Pin, GPIO_PIN_RESET);
 116              		.loc 1 54 3 view .LVU27
 117 0058 8024     		movs	r4, #128
 118 005a 6400     		lsls	r4, r4, #1
ARM GAS  /tmp/ccEleut3.s 			page 4


 119 005c 0D4D     		ldr	r5, .L2+4
 120 005e 0022     		movs	r2, #0
 121 0060 2100     		movs	r1, r4
 122 0062 2800     		movs	r0, r5
 123 0064 FFF7FEFF 		bl	HAL_GPIO_WritePin
 124              	.LVL1:
  55:Core/Src/gpio.c **** 
  56:Core/Src/gpio.c ****   /*Configure GPIO pin : PtPin */
  57:Core/Src/gpio.c ****   GPIO_InitStruct.Pin = LED_Pin;
 125              		.loc 1 57 3 view .LVU28
 126              		.loc 1 57 23 is_stmt 0 view .LVU29
 127 0068 0594     		str	r4, [sp, #20]
  58:Core/Src/gpio.c ****   GPIO_InitStruct.Mode = GPIO_MODE_OUTPUT_PP;
 128              		.loc 1 58 3 is_stmt 1 view .LVU30
 129              		.loc 1 58 24 is_stmt 0 view .LVU31
 130 006a 0123     		movs	r3, #1
 131 006c 0693     		str	r3, [sp, #24]
  59:Core/Src/gpio.c ****   GPIO_InitStruct.Pull = GPIO_NOPULL;
 132              		.loc 1 59 3 is_stmt 1 view .LVU32
 133              		.loc 1 59 24 is_stmt 0 view .LVU33
 134 006e 0024     		movs	r4, #0
 135 0070 0794     		str	r4, [sp, #28]
  60:Core/Src/gpio.c ****   GPIO_InitStruct.Speed = GPIO_SPEED_FREQ_LOW;
 136              		.loc 1 60 3 is_stmt 1 view .LVU34
 137              		.loc 1 60 25 is_stmt 0 view .LVU35
 138 0072 0894     		str	r4, [sp, #32]
  61:Core/Src/gpio.c ****   HAL_GPIO_Init(LED_GPIO_Port, &GPIO_InitStruct);
 139              		.loc 1 61 3 is_stmt 1 view .LVU36
 140 0074 05A9     		add	r1, sp, #20
 141 0076 2800     		movs	r0, r5
 142 0078 FFF7FEFF 		bl	HAL_GPIO_Init
 143              	.LVL2:
  62:Core/Src/gpio.c **** 
  63:Core/Src/gpio.c ****   /*Configure GPIO pin : PB5 */
  64:Core/Src/gpio.c ****   GPIO_InitStruct.Pin = GPIO_PIN_5;
 144              		.loc 1 64 3 view .LVU37
 145              		.loc 1 64 23 is_stmt 0 view .LVU38
 146 007c 2023     		movs	r3, #32
 147 007e 0593     		str	r3, [sp, #20]
  65:Core/Src/gpio.c ****   GPIO_InitStruct.Mode = GPIO_MODE_INPUT;
 148              		.loc 1 65 3 is_stmt 1 view .LVU39
 149              		.loc 1 65 24 is_stmt 0 view .LVU40
 150 0080 0694     		str	r4, [sp, #24]
  66:Core/Src/gpio.c ****   GPIO_InitStruct.Pull = GPIO_NOPULL;
 151              		.loc 1 66 3 is_stmt 1 view .LVU41
 152              		.loc 1 66 24 is_stmt 0 view .LVU42
 153 0082 0794     		str	r4, [sp, #28]
  67:Core/Src/gpio.c ****   HAL_GPIO_Init(GPIOB, &GPIO_InitStruct);
 154              		.loc 1 67 3 is_stmt 1 view .LVU43
 155 0084 05A9     		add	r1, sp, #20
 156 0086 0448     		ldr	r0, .L2+8
 157 0088 FFF7FEFF 		bl	HAL_GPIO_Init
 158              	.LVL3:
  68:Core/Src/gpio.c **** 
  69:Core/Src/gpio.c **** }
 159              		.loc 1 69 1 is_stmt 0 view .LVU44
 160 008c 0BB0     		add	sp, sp, #44
ARM GAS  /tmp/ccEleut3.s 			page 5


 161              		@ sp needed
 162 008e 30BD     		pop	{r4, r5, pc}
 163              	.L3:
 164              		.align	2
 165              	.L2:
 166 0090 00100240 		.word	1073876992
 167 0094 00080048 		.word	1207961600
 168 0098 00040048 		.word	1207960576
 169              		.cfi_endproc
 170              	.LFE40:
 172              		.text
 173              	.Letext0:
 174              		.file 2 "/usr/lib/gcc/arm-none-eabi/10.3.1/include/stdint.h"
 175              		.file 3 "Drivers/CMSIS/Device/ST/STM32F0xx/Include/stm32f051x8.h"
 176              		.file 4 "Drivers/STM32F0xx_HAL_Driver/Inc/stm32f0xx_hal_gpio.h"
 177              		.file 5 "<built-in>"
ARM GAS  /tmp/ccEleut3.s 			page 6

