ARM GAS  /tmp/ccAPLIyc.s 			page 1


   1              		.cpu cortex-m0
   2              		.eabi_attribute 20, 1
   3              		.eabi_attribute 21, 1
   4              		.eabi_attribute 23, 3
   5              		.eabi_attribute 24, 1
   6              		.eabi_attribute 25, 1
   7              		.eabi_attribute 26, 1
   8              		.eabi_attribute 30, 1
   9              		.eabi_attribute 34, 0
  10              		.eabi_attribute 18, 4
  11              		.file	"stm32f0xx_hal_rcc.c"
  12              		.text
  13              	.Ltext0:
  14              		.cfi_sections	.debug_frame
  15              		.section	.text.HAL_RCC_DeInit,"ax",%progbits
  16              		.align	1
  17              		.global	HAL_RCC_DeInit
  18              		.arch armv6s-m
  19              		.syntax unified
  20              		.code	16
  21              		.thumb_func
  22              		.fpu softvfp
  24              	HAL_RCC_DeInit:
  25              	.LFB40:
  26              		.file 1 "Drivers/STM32F0xx_HAL_Driver/Src/stm32f0xx_hal_rcc.c"
   1:Drivers/STM32F0xx_HAL_Driver/Src/stm32f0xx_hal_rcc.c **** /**
   2:Drivers/STM32F0xx_HAL_Driver/Src/stm32f0xx_hal_rcc.c ****   ******************************************************************************
   3:Drivers/STM32F0xx_HAL_Driver/Src/stm32f0xx_hal_rcc.c ****   * @file    stm32f0xx_hal_rcc.c
   4:Drivers/STM32F0xx_HAL_Driver/Src/stm32f0xx_hal_rcc.c ****   * @author  MCD Application Team
   5:Drivers/STM32F0xx_HAL_Driver/Src/stm32f0xx_hal_rcc.c ****   * @brief   RCC HAL module driver.
   6:Drivers/STM32F0xx_HAL_Driver/Src/stm32f0xx_hal_rcc.c ****   *          This file provides firmware functions to manage the following 
   7:Drivers/STM32F0xx_HAL_Driver/Src/stm32f0xx_hal_rcc.c ****   *          functionalities of the Reset and Clock Control (RCC) peripheral:
   8:Drivers/STM32F0xx_HAL_Driver/Src/stm32f0xx_hal_rcc.c ****   *           + Initialization and de-initialization functions
   9:Drivers/STM32F0xx_HAL_Driver/Src/stm32f0xx_hal_rcc.c ****   *           + Peripheral Control functions
  10:Drivers/STM32F0xx_HAL_Driver/Src/stm32f0xx_hal_rcc.c ****   *       
  11:Drivers/STM32F0xx_HAL_Driver/Src/stm32f0xx_hal_rcc.c ****   @verbatim                
  12:Drivers/STM32F0xx_HAL_Driver/Src/stm32f0xx_hal_rcc.c ****   ==============================================================================
  13:Drivers/STM32F0xx_HAL_Driver/Src/stm32f0xx_hal_rcc.c ****                       ##### RCC specific features #####
  14:Drivers/STM32F0xx_HAL_Driver/Src/stm32f0xx_hal_rcc.c ****   ==============================================================================
  15:Drivers/STM32F0xx_HAL_Driver/Src/stm32f0xx_hal_rcc.c ****     [..]  
  16:Drivers/STM32F0xx_HAL_Driver/Src/stm32f0xx_hal_rcc.c ****       After reset the device is running from Internal High Speed oscillator
  17:Drivers/STM32F0xx_HAL_Driver/Src/stm32f0xx_hal_rcc.c ****       (HSI 8MHz) with Flash 0 wait state, Flash prefetch buffer is disabled, 
  18:Drivers/STM32F0xx_HAL_Driver/Src/stm32f0xx_hal_rcc.c ****       and all peripherals are off except internal SRAM, Flash and JTAG.
  19:Drivers/STM32F0xx_HAL_Driver/Src/stm32f0xx_hal_rcc.c ****       (+) There is no prescaler on High speed (AHB) and Low speed (APB) buses;
  20:Drivers/STM32F0xx_HAL_Driver/Src/stm32f0xx_hal_rcc.c ****           all peripherals mapped on these buses are running at HSI speed.
  21:Drivers/STM32F0xx_HAL_Driver/Src/stm32f0xx_hal_rcc.c ****       (+) The clock for all peripherals is switched off, except the SRAM and FLASH.
  22:Drivers/STM32F0xx_HAL_Driver/Src/stm32f0xx_hal_rcc.c ****       (+) All GPIOs are in input floating state, except the JTAG pins which
  23:Drivers/STM32F0xx_HAL_Driver/Src/stm32f0xx_hal_rcc.c ****           are assigned to be used for debug purpose.
  24:Drivers/STM32F0xx_HAL_Driver/Src/stm32f0xx_hal_rcc.c ****     [..] Once the device started from reset, the user application has to:
  25:Drivers/STM32F0xx_HAL_Driver/Src/stm32f0xx_hal_rcc.c ****       (+) Configure the clock source to be used to drive the System clock
  26:Drivers/STM32F0xx_HAL_Driver/Src/stm32f0xx_hal_rcc.c ****           (if the application needs higher frequency/performance)
  27:Drivers/STM32F0xx_HAL_Driver/Src/stm32f0xx_hal_rcc.c ****       (+) Configure the System clock frequency and Flash settings  
  28:Drivers/STM32F0xx_HAL_Driver/Src/stm32f0xx_hal_rcc.c ****       (+) Configure the AHB and APB buses prescalers
  29:Drivers/STM32F0xx_HAL_Driver/Src/stm32f0xx_hal_rcc.c ****       (+) Enable the clock for the peripheral(s) to be used
  30:Drivers/STM32F0xx_HAL_Driver/Src/stm32f0xx_hal_rcc.c ****       (+) Configure the clock source(s) for peripherals whose clocks are not
  31:Drivers/STM32F0xx_HAL_Driver/Src/stm32f0xx_hal_rcc.c ****           derived from the System clock (RTC, ADC, I2C, USART, TIM, USB FS, etc..)
  32:Drivers/STM32F0xx_HAL_Driver/Src/stm32f0xx_hal_rcc.c **** 
ARM GAS  /tmp/ccAPLIyc.s 			page 2


  33:Drivers/STM32F0xx_HAL_Driver/Src/stm32f0xx_hal_rcc.c ****                       ##### RCC Limitations #####
  34:Drivers/STM32F0xx_HAL_Driver/Src/stm32f0xx_hal_rcc.c ****   ==============================================================================
  35:Drivers/STM32F0xx_HAL_Driver/Src/stm32f0xx_hal_rcc.c ****     [..]  
  36:Drivers/STM32F0xx_HAL_Driver/Src/stm32f0xx_hal_rcc.c ****       A delay between an RCC peripheral clock enable and the effective peripheral 
  37:Drivers/STM32F0xx_HAL_Driver/Src/stm32f0xx_hal_rcc.c ****       enabling should be taken into account in order to manage the peripheral read/write 
  38:Drivers/STM32F0xx_HAL_Driver/Src/stm32f0xx_hal_rcc.c ****       from/to registers.
  39:Drivers/STM32F0xx_HAL_Driver/Src/stm32f0xx_hal_rcc.c ****       (+) This delay depends on the peripheral mapping.
  40:Drivers/STM32F0xx_HAL_Driver/Src/stm32f0xx_hal_rcc.c ****         (++) AHB & APB peripherals, 1 dummy read is necessary
  41:Drivers/STM32F0xx_HAL_Driver/Src/stm32f0xx_hal_rcc.c **** 
  42:Drivers/STM32F0xx_HAL_Driver/Src/stm32f0xx_hal_rcc.c ****     [..]  
  43:Drivers/STM32F0xx_HAL_Driver/Src/stm32f0xx_hal_rcc.c ****       Workarounds:
  44:Drivers/STM32F0xx_HAL_Driver/Src/stm32f0xx_hal_rcc.c ****       (#) For AHB & APB peripherals, a dummy read to the peripheral register has been
  45:Drivers/STM32F0xx_HAL_Driver/Src/stm32f0xx_hal_rcc.c ****           inserted in each __HAL_RCC_PPP_CLK_ENABLE() macro.
  46:Drivers/STM32F0xx_HAL_Driver/Src/stm32f0xx_hal_rcc.c **** 
  47:Drivers/STM32F0xx_HAL_Driver/Src/stm32f0xx_hal_rcc.c ****   @endverbatim
  48:Drivers/STM32F0xx_HAL_Driver/Src/stm32f0xx_hal_rcc.c ****   ******************************************************************************
  49:Drivers/STM32F0xx_HAL_Driver/Src/stm32f0xx_hal_rcc.c ****   * @attention
  50:Drivers/STM32F0xx_HAL_Driver/Src/stm32f0xx_hal_rcc.c ****   *
  51:Drivers/STM32F0xx_HAL_Driver/Src/stm32f0xx_hal_rcc.c ****   * Copyright (c) 2016 STMicroelectronics.
  52:Drivers/STM32F0xx_HAL_Driver/Src/stm32f0xx_hal_rcc.c ****   * All rights reserved.
  53:Drivers/STM32F0xx_HAL_Driver/Src/stm32f0xx_hal_rcc.c ****   *
  54:Drivers/STM32F0xx_HAL_Driver/Src/stm32f0xx_hal_rcc.c ****   * This software is licensed under terms that can be found in the LICENSE file in
  55:Drivers/STM32F0xx_HAL_Driver/Src/stm32f0xx_hal_rcc.c ****   * the root directory of this software component.
  56:Drivers/STM32F0xx_HAL_Driver/Src/stm32f0xx_hal_rcc.c ****   * If no LICENSE file comes with this software, it is provided AS-IS.
  57:Drivers/STM32F0xx_HAL_Driver/Src/stm32f0xx_hal_rcc.c ****   ******************************************************************************
  58:Drivers/STM32F0xx_HAL_Driver/Src/stm32f0xx_hal_rcc.c ****   */
  59:Drivers/STM32F0xx_HAL_Driver/Src/stm32f0xx_hal_rcc.c **** 
  60:Drivers/STM32F0xx_HAL_Driver/Src/stm32f0xx_hal_rcc.c **** /* Includes ------------------------------------------------------------------*/
  61:Drivers/STM32F0xx_HAL_Driver/Src/stm32f0xx_hal_rcc.c **** #include "stm32f0xx_hal.h"
  62:Drivers/STM32F0xx_HAL_Driver/Src/stm32f0xx_hal_rcc.c **** 
  63:Drivers/STM32F0xx_HAL_Driver/Src/stm32f0xx_hal_rcc.c **** /** @addtogroup STM32F0xx_HAL_Driver
  64:Drivers/STM32F0xx_HAL_Driver/Src/stm32f0xx_hal_rcc.c ****   * @{
  65:Drivers/STM32F0xx_HAL_Driver/Src/stm32f0xx_hal_rcc.c ****   */
  66:Drivers/STM32F0xx_HAL_Driver/Src/stm32f0xx_hal_rcc.c **** 
  67:Drivers/STM32F0xx_HAL_Driver/Src/stm32f0xx_hal_rcc.c **** /** @defgroup RCC RCC
  68:Drivers/STM32F0xx_HAL_Driver/Src/stm32f0xx_hal_rcc.c **** * @brief RCC HAL module driver
  69:Drivers/STM32F0xx_HAL_Driver/Src/stm32f0xx_hal_rcc.c ****   * @{
  70:Drivers/STM32F0xx_HAL_Driver/Src/stm32f0xx_hal_rcc.c ****   */
  71:Drivers/STM32F0xx_HAL_Driver/Src/stm32f0xx_hal_rcc.c **** 
  72:Drivers/STM32F0xx_HAL_Driver/Src/stm32f0xx_hal_rcc.c **** #ifdef HAL_RCC_MODULE_ENABLED
  73:Drivers/STM32F0xx_HAL_Driver/Src/stm32f0xx_hal_rcc.c **** 
  74:Drivers/STM32F0xx_HAL_Driver/Src/stm32f0xx_hal_rcc.c **** /* Private typedef -----------------------------------------------------------*/
  75:Drivers/STM32F0xx_HAL_Driver/Src/stm32f0xx_hal_rcc.c **** /* Private define ------------------------------------------------------------*/
  76:Drivers/STM32F0xx_HAL_Driver/Src/stm32f0xx_hal_rcc.c **** /** @defgroup RCC_Private_Constants RCC Private Constants
  77:Drivers/STM32F0xx_HAL_Driver/Src/stm32f0xx_hal_rcc.c ****  * @{
  78:Drivers/STM32F0xx_HAL_Driver/Src/stm32f0xx_hal_rcc.c ****  */
  79:Drivers/STM32F0xx_HAL_Driver/Src/stm32f0xx_hal_rcc.c **** /**
  80:Drivers/STM32F0xx_HAL_Driver/Src/stm32f0xx_hal_rcc.c ****   * @}
  81:Drivers/STM32F0xx_HAL_Driver/Src/stm32f0xx_hal_rcc.c ****   */
  82:Drivers/STM32F0xx_HAL_Driver/Src/stm32f0xx_hal_rcc.c **** /* Private macro -------------------------------------------------------------*/
  83:Drivers/STM32F0xx_HAL_Driver/Src/stm32f0xx_hal_rcc.c **** /** @defgroup RCC_Private_Macros RCC Private Macros
  84:Drivers/STM32F0xx_HAL_Driver/Src/stm32f0xx_hal_rcc.c ****   * @{
  85:Drivers/STM32F0xx_HAL_Driver/Src/stm32f0xx_hal_rcc.c ****   */
  86:Drivers/STM32F0xx_HAL_Driver/Src/stm32f0xx_hal_rcc.c **** 
  87:Drivers/STM32F0xx_HAL_Driver/Src/stm32f0xx_hal_rcc.c **** #define MCO1_CLK_ENABLE()     __HAL_RCC_GPIOA_CLK_ENABLE()
  88:Drivers/STM32F0xx_HAL_Driver/Src/stm32f0xx_hal_rcc.c **** #define MCO1_GPIO_PORT        GPIOA
  89:Drivers/STM32F0xx_HAL_Driver/Src/stm32f0xx_hal_rcc.c **** #define MCO1_PIN              GPIO_PIN_8
ARM GAS  /tmp/ccAPLIyc.s 			page 3


  90:Drivers/STM32F0xx_HAL_Driver/Src/stm32f0xx_hal_rcc.c **** 
  91:Drivers/STM32F0xx_HAL_Driver/Src/stm32f0xx_hal_rcc.c **** /**
  92:Drivers/STM32F0xx_HAL_Driver/Src/stm32f0xx_hal_rcc.c ****   * @}
  93:Drivers/STM32F0xx_HAL_Driver/Src/stm32f0xx_hal_rcc.c ****   */
  94:Drivers/STM32F0xx_HAL_Driver/Src/stm32f0xx_hal_rcc.c **** 
  95:Drivers/STM32F0xx_HAL_Driver/Src/stm32f0xx_hal_rcc.c **** /* Private variables ---------------------------------------------------------*/
  96:Drivers/STM32F0xx_HAL_Driver/Src/stm32f0xx_hal_rcc.c **** /** @defgroup RCC_Private_Variables RCC Private Variables
  97:Drivers/STM32F0xx_HAL_Driver/Src/stm32f0xx_hal_rcc.c ****   * @{
  98:Drivers/STM32F0xx_HAL_Driver/Src/stm32f0xx_hal_rcc.c ****   */
  99:Drivers/STM32F0xx_HAL_Driver/Src/stm32f0xx_hal_rcc.c **** /**
 100:Drivers/STM32F0xx_HAL_Driver/Src/stm32f0xx_hal_rcc.c ****   * @}
 101:Drivers/STM32F0xx_HAL_Driver/Src/stm32f0xx_hal_rcc.c ****   */
 102:Drivers/STM32F0xx_HAL_Driver/Src/stm32f0xx_hal_rcc.c **** 
 103:Drivers/STM32F0xx_HAL_Driver/Src/stm32f0xx_hal_rcc.c **** /* Private function prototypes -----------------------------------------------*/
 104:Drivers/STM32F0xx_HAL_Driver/Src/stm32f0xx_hal_rcc.c **** /* Exported functions ---------------------------------------------------------*/
 105:Drivers/STM32F0xx_HAL_Driver/Src/stm32f0xx_hal_rcc.c **** 
 106:Drivers/STM32F0xx_HAL_Driver/Src/stm32f0xx_hal_rcc.c **** /** @defgroup RCC_Exported_Functions RCC Exported Functions
 107:Drivers/STM32F0xx_HAL_Driver/Src/stm32f0xx_hal_rcc.c ****   * @{
 108:Drivers/STM32F0xx_HAL_Driver/Src/stm32f0xx_hal_rcc.c ****   */
 109:Drivers/STM32F0xx_HAL_Driver/Src/stm32f0xx_hal_rcc.c **** 
 110:Drivers/STM32F0xx_HAL_Driver/Src/stm32f0xx_hal_rcc.c **** /** @defgroup RCC_Exported_Functions_Group1 Initialization and de-initialization functions 
 111:Drivers/STM32F0xx_HAL_Driver/Src/stm32f0xx_hal_rcc.c ****   *  @brief    Initialization and Configuration functions 
 112:Drivers/STM32F0xx_HAL_Driver/Src/stm32f0xx_hal_rcc.c ****   *
 113:Drivers/STM32F0xx_HAL_Driver/Src/stm32f0xx_hal_rcc.c ****   @verbatim    
 114:Drivers/STM32F0xx_HAL_Driver/Src/stm32f0xx_hal_rcc.c ****   ===============================================================================
 115:Drivers/STM32F0xx_HAL_Driver/Src/stm32f0xx_hal_rcc.c ****            ##### Initialization and de-initialization functions #####
 116:Drivers/STM32F0xx_HAL_Driver/Src/stm32f0xx_hal_rcc.c ****   ===============================================================================
 117:Drivers/STM32F0xx_HAL_Driver/Src/stm32f0xx_hal_rcc.c ****     [..]
 118:Drivers/STM32F0xx_HAL_Driver/Src/stm32f0xx_hal_rcc.c ****       This section provides functions allowing to configure the internal/external oscillators
 119:Drivers/STM32F0xx_HAL_Driver/Src/stm32f0xx_hal_rcc.c ****       (HSE, HSI, HSI14, HSI48, LSE, LSI, PLL, CSS and MCO) and the System buses clocks (SYSCLK, 
 120:Drivers/STM32F0xx_HAL_Driver/Src/stm32f0xx_hal_rcc.c ****       AHB and APB1).
 121:Drivers/STM32F0xx_HAL_Driver/Src/stm32f0xx_hal_rcc.c **** 
 122:Drivers/STM32F0xx_HAL_Driver/Src/stm32f0xx_hal_rcc.c ****     [..] Internal/external clock and PLL configuration
 123:Drivers/STM32F0xx_HAL_Driver/Src/stm32f0xx_hal_rcc.c ****       (#) HSI (high-speed internal), 8 MHz factory-trimmed RC used directly or through
 124:Drivers/STM32F0xx_HAL_Driver/Src/stm32f0xx_hal_rcc.c ****           the PLL as System clock source.
 125:Drivers/STM32F0xx_HAL_Driver/Src/stm32f0xx_hal_rcc.c ****           The HSI clock can be used also to clock the USART and I2C peripherals.
 126:Drivers/STM32F0xx_HAL_Driver/Src/stm32f0xx_hal_rcc.c **** 
 127:Drivers/STM32F0xx_HAL_Driver/Src/stm32f0xx_hal_rcc.c ****       (#) HSI14 (high-speed internal), 14 MHz factory-trimmed RC used directly to clock 
 128:Drivers/STM32F0xx_HAL_Driver/Src/stm32f0xx_hal_rcc.c ****           the ADC peripheral.
 129:Drivers/STM32F0xx_HAL_Driver/Src/stm32f0xx_hal_rcc.c **** 
 130:Drivers/STM32F0xx_HAL_Driver/Src/stm32f0xx_hal_rcc.c ****       (#) LSI (low-speed internal), ~40 KHz low consumption RC used as IWDG and/or RTC
 131:Drivers/STM32F0xx_HAL_Driver/Src/stm32f0xx_hal_rcc.c ****           clock source.
 132:Drivers/STM32F0xx_HAL_Driver/Src/stm32f0xx_hal_rcc.c **** 
 133:Drivers/STM32F0xx_HAL_Driver/Src/stm32f0xx_hal_rcc.c ****       (#) HSE (high-speed external), 4 to 32 MHz crystal oscillator used directly or
 134:Drivers/STM32F0xx_HAL_Driver/Src/stm32f0xx_hal_rcc.c ****           through the PLL as System clock source. Can be used also as RTC clock source.
 135:Drivers/STM32F0xx_HAL_Driver/Src/stm32f0xx_hal_rcc.c **** 
 136:Drivers/STM32F0xx_HAL_Driver/Src/stm32f0xx_hal_rcc.c ****       (#) LSE (low-speed external), 32 KHz oscillator used as RTC clock source.   
 137:Drivers/STM32F0xx_HAL_Driver/Src/stm32f0xx_hal_rcc.c **** 
 138:Drivers/STM32F0xx_HAL_Driver/Src/stm32f0xx_hal_rcc.c ****       (#) PLL (clocked by HSI, HSI48 or HSE), featuring different output clocks:
 139:Drivers/STM32F0xx_HAL_Driver/Src/stm32f0xx_hal_rcc.c ****        (++) The first output is used to generate the high speed system clock (up to 48 MHz)
 140:Drivers/STM32F0xx_HAL_Driver/Src/stm32f0xx_hal_rcc.c ****        (++) The second output is used to generate the clock for the USB FS (48 MHz)
 141:Drivers/STM32F0xx_HAL_Driver/Src/stm32f0xx_hal_rcc.c ****        (++) The third output may be used to generate the clock for the TIM, I2C and USART 
 142:Drivers/STM32F0xx_HAL_Driver/Src/stm32f0xx_hal_rcc.c ****             peripherals (up to 48 MHz)
 143:Drivers/STM32F0xx_HAL_Driver/Src/stm32f0xx_hal_rcc.c **** 
 144:Drivers/STM32F0xx_HAL_Driver/Src/stm32f0xx_hal_rcc.c ****       (#) CSS (Clock security system), once enable using the macro __HAL_RCC_CSS_ENABLE()
 145:Drivers/STM32F0xx_HAL_Driver/Src/stm32f0xx_hal_rcc.c ****           and if a HSE clock failure occurs(HSE used directly or through PLL as System 
 146:Drivers/STM32F0xx_HAL_Driver/Src/stm32f0xx_hal_rcc.c ****           clock source), the System clocks automatically switched to HSI and an interrupt
ARM GAS  /tmp/ccAPLIyc.s 			page 4


 147:Drivers/STM32F0xx_HAL_Driver/Src/stm32f0xx_hal_rcc.c ****           is generated if enabled. The interrupt is linked to the Cortex-M0 NMI 
 148:Drivers/STM32F0xx_HAL_Driver/Src/stm32f0xx_hal_rcc.c ****           (Non-Maskable Interrupt) exception vector.   
 149:Drivers/STM32F0xx_HAL_Driver/Src/stm32f0xx_hal_rcc.c **** 
 150:Drivers/STM32F0xx_HAL_Driver/Src/stm32f0xx_hal_rcc.c ****       (#) MCO (microcontroller clock output), used to output SYSCLK, HSI, HSE, LSI, LSE or PLL
 151:Drivers/STM32F0xx_HAL_Driver/Src/stm32f0xx_hal_rcc.c ****           clock (divided by 2) output on pin (such as PA8 pin).
 152:Drivers/STM32F0xx_HAL_Driver/Src/stm32f0xx_hal_rcc.c **** 
 153:Drivers/STM32F0xx_HAL_Driver/Src/stm32f0xx_hal_rcc.c ****     [..] System, AHB and APB buses clocks configuration
 154:Drivers/STM32F0xx_HAL_Driver/Src/stm32f0xx_hal_rcc.c ****       (#) Several clock sources can be used to drive the System clock (SYSCLK): HSI,
 155:Drivers/STM32F0xx_HAL_Driver/Src/stm32f0xx_hal_rcc.c ****           HSE and PLL.
 156:Drivers/STM32F0xx_HAL_Driver/Src/stm32f0xx_hal_rcc.c ****           The AHB clock (HCLK) is derived from System clock through configurable
 157:Drivers/STM32F0xx_HAL_Driver/Src/stm32f0xx_hal_rcc.c ****           prescaler and used to clock the CPU, memory and peripherals mapped
 158:Drivers/STM32F0xx_HAL_Driver/Src/stm32f0xx_hal_rcc.c ****           on AHB bus (DMA, GPIO...). APB1 (PCLK1) clock is derived
 159:Drivers/STM32F0xx_HAL_Driver/Src/stm32f0xx_hal_rcc.c ****           from AHB clock through configurable prescalers and used to clock
 160:Drivers/STM32F0xx_HAL_Driver/Src/stm32f0xx_hal_rcc.c ****           the peripherals mapped on these buses. You can use
 161:Drivers/STM32F0xx_HAL_Driver/Src/stm32f0xx_hal_rcc.c ****           "HAL_RCC_GetSysClockFreq()" function to retrieve the frequencies of these clocks.
 162:Drivers/STM32F0xx_HAL_Driver/Src/stm32f0xx_hal_rcc.c **** 
 163:Drivers/STM32F0xx_HAL_Driver/Src/stm32f0xx_hal_rcc.c ****       (#) All the peripheral clocks are derived from the System clock (SYSCLK) except:
 164:Drivers/STM32F0xx_HAL_Driver/Src/stm32f0xx_hal_rcc.c ****         (++) The FLASH program/erase clock  which is always HSI 8MHz clock.
 165:Drivers/STM32F0xx_HAL_Driver/Src/stm32f0xx_hal_rcc.c ****         (++) The USB 48 MHz clock which is derived from the PLL VCO clock.
 166:Drivers/STM32F0xx_HAL_Driver/Src/stm32f0xx_hal_rcc.c ****         (++) The USART clock which can be derived as well from HSI 8MHz, LSI or LSE.
 167:Drivers/STM32F0xx_HAL_Driver/Src/stm32f0xx_hal_rcc.c ****         (++) The I2C clock which can be derived as well from HSI 8MHz clock.
 168:Drivers/STM32F0xx_HAL_Driver/Src/stm32f0xx_hal_rcc.c ****         (++) The ADC clock which is derived from PLL output.
 169:Drivers/STM32F0xx_HAL_Driver/Src/stm32f0xx_hal_rcc.c ****         (++) The RTC clock which is derived from the LSE, LSI or 1 MHz HSE_RTC
 170:Drivers/STM32F0xx_HAL_Driver/Src/stm32f0xx_hal_rcc.c ****              (HSE divided by a programmable prescaler). The System clock (SYSCLK)
 171:Drivers/STM32F0xx_HAL_Driver/Src/stm32f0xx_hal_rcc.c ****              frequency must be higher or equal to the RTC clock frequency.
 172:Drivers/STM32F0xx_HAL_Driver/Src/stm32f0xx_hal_rcc.c ****         (++) IWDG clock which is always the LSI clock.
 173:Drivers/STM32F0xx_HAL_Driver/Src/stm32f0xx_hal_rcc.c **** 
 174:Drivers/STM32F0xx_HAL_Driver/Src/stm32f0xx_hal_rcc.c ****       (#) For the STM32F0xx devices, the maximum frequency of the SYSCLK, HCLK and PCLK1 is 48 MHz,
 175:Drivers/STM32F0xx_HAL_Driver/Src/stm32f0xx_hal_rcc.c ****           Depending on the SYSCLK frequency, the flash latency should be adapted accordingly.
 176:Drivers/STM32F0xx_HAL_Driver/Src/stm32f0xx_hal_rcc.c **** 
 177:Drivers/STM32F0xx_HAL_Driver/Src/stm32f0xx_hal_rcc.c ****       (#) After reset, the System clock source is the HSI (8 MHz) with 0 WS and
 178:Drivers/STM32F0xx_HAL_Driver/Src/stm32f0xx_hal_rcc.c ****           prefetch is disabled.
 179:Drivers/STM32F0xx_HAL_Driver/Src/stm32f0xx_hal_rcc.c ****   @endverbatim
 180:Drivers/STM32F0xx_HAL_Driver/Src/stm32f0xx_hal_rcc.c ****   * @{
 181:Drivers/STM32F0xx_HAL_Driver/Src/stm32f0xx_hal_rcc.c ****   */
 182:Drivers/STM32F0xx_HAL_Driver/Src/stm32f0xx_hal_rcc.c ****   
 183:Drivers/STM32F0xx_HAL_Driver/Src/stm32f0xx_hal_rcc.c **** /*
 184:Drivers/STM32F0xx_HAL_Driver/Src/stm32f0xx_hal_rcc.c ****   Additional consideration on the SYSCLK based on Latency settings:
 185:Drivers/STM32F0xx_HAL_Driver/Src/stm32f0xx_hal_rcc.c ****           +-----------------------------------------------+
 186:Drivers/STM32F0xx_HAL_Driver/Src/stm32f0xx_hal_rcc.c ****           | Latency       | SYSCLK clock frequency (MHz)  |
 187:Drivers/STM32F0xx_HAL_Driver/Src/stm32f0xx_hal_rcc.c ****           |---------------|-------------------------------|
 188:Drivers/STM32F0xx_HAL_Driver/Src/stm32f0xx_hal_rcc.c ****           |0WS(1CPU cycle)|       0 < SYSCLK <= 24        |
 189:Drivers/STM32F0xx_HAL_Driver/Src/stm32f0xx_hal_rcc.c ****           |---------------|-------------------------------|
 190:Drivers/STM32F0xx_HAL_Driver/Src/stm32f0xx_hal_rcc.c ****           |1WS(2CPU cycle)|      24 < SYSCLK <= 48        |
 191:Drivers/STM32F0xx_HAL_Driver/Src/stm32f0xx_hal_rcc.c ****           +-----------------------------------------------+
 192:Drivers/STM32F0xx_HAL_Driver/Src/stm32f0xx_hal_rcc.c ****   */
 193:Drivers/STM32F0xx_HAL_Driver/Src/stm32f0xx_hal_rcc.c **** 
 194:Drivers/STM32F0xx_HAL_Driver/Src/stm32f0xx_hal_rcc.c **** /**
 195:Drivers/STM32F0xx_HAL_Driver/Src/stm32f0xx_hal_rcc.c ****   * @brief  Resets the RCC clock configuration to the default reset state.
 196:Drivers/STM32F0xx_HAL_Driver/Src/stm32f0xx_hal_rcc.c ****   * @note   The default reset state of the clock configuration is given below:
 197:Drivers/STM32F0xx_HAL_Driver/Src/stm32f0xx_hal_rcc.c ****   *            - HSI ON and used as system clock source
 198:Drivers/STM32F0xx_HAL_Driver/Src/stm32f0xx_hal_rcc.c ****   *            - HSE and PLL OFF
 199:Drivers/STM32F0xx_HAL_Driver/Src/stm32f0xx_hal_rcc.c ****   *            - AHB, APB1 prescaler set to 1.
 200:Drivers/STM32F0xx_HAL_Driver/Src/stm32f0xx_hal_rcc.c ****   *            - CSS and MCO1 OFF
 201:Drivers/STM32F0xx_HAL_Driver/Src/stm32f0xx_hal_rcc.c ****   *            - All interrupts disabled
 202:Drivers/STM32F0xx_HAL_Driver/Src/stm32f0xx_hal_rcc.c ****   *            - All interrupt and reset flags cleared
 203:Drivers/STM32F0xx_HAL_Driver/Src/stm32f0xx_hal_rcc.c ****   * @note   This function does not modify the configuration of the
ARM GAS  /tmp/ccAPLIyc.s 			page 5


 204:Drivers/STM32F0xx_HAL_Driver/Src/stm32f0xx_hal_rcc.c ****   *            - Peripheral clocks
 205:Drivers/STM32F0xx_HAL_Driver/Src/stm32f0xx_hal_rcc.c ****   *            - LSI, LSE and RTC clocks
 206:Drivers/STM32F0xx_HAL_Driver/Src/stm32f0xx_hal_rcc.c ****   * @retval HAL status
 207:Drivers/STM32F0xx_HAL_Driver/Src/stm32f0xx_hal_rcc.c ****   */
 208:Drivers/STM32F0xx_HAL_Driver/Src/stm32f0xx_hal_rcc.c **** HAL_StatusTypeDef HAL_RCC_DeInit(void)
 209:Drivers/STM32F0xx_HAL_Driver/Src/stm32f0xx_hal_rcc.c **** {
  27              		.loc 1 209 1 view -0
  28              		.cfi_startproc
  29              		@ args = 0, pretend = 0, frame = 0
  30              		@ frame_needed = 0, uses_anonymous_args = 0
  31 0000 70B5     		push	{r4, r5, r6, lr}
  32              	.LCFI0:
  33              		.cfi_def_cfa_offset 16
  34              		.cfi_offset 4, -16
  35              		.cfi_offset 5, -12
  36              		.cfi_offset 6, -8
  37              		.cfi_offset 14, -4
 210:Drivers/STM32F0xx_HAL_Driver/Src/stm32f0xx_hal_rcc.c ****   uint32_t tickstart;
  38              		.loc 1 210 3 view .LVU1
 211:Drivers/STM32F0xx_HAL_Driver/Src/stm32f0xx_hal_rcc.c **** 
 212:Drivers/STM32F0xx_HAL_Driver/Src/stm32f0xx_hal_rcc.c ****   /* Get Start Tick*/
 213:Drivers/STM32F0xx_HAL_Driver/Src/stm32f0xx_hal_rcc.c ****   tickstart = HAL_GetTick();
  39              		.loc 1 213 3 view .LVU2
  40              		.loc 1 213 15 is_stmt 0 view .LVU3
  41 0002 FFF7FEFF 		bl	HAL_GetTick
  42              	.LVL0:
  43 0006 0400     		movs	r4, r0
  44              	.LVL1:
 214:Drivers/STM32F0xx_HAL_Driver/Src/stm32f0xx_hal_rcc.c ****   
 215:Drivers/STM32F0xx_HAL_Driver/Src/stm32f0xx_hal_rcc.c ****   /* Set HSION bit, HSITRIM[4:0] bits to the reset value*/
 216:Drivers/STM32F0xx_HAL_Driver/Src/stm32f0xx_hal_rcc.c ****   SET_BIT(RCC->CR, RCC_CR_HSION | RCC_CR_HSITRIM_4); 
  45              		.loc 1 216 3 is_stmt 1 view .LVU4
  46 0008 284A     		ldr	r2, .L17
  47 000a 1368     		ldr	r3, [r2]
  48 000c 8121     		movs	r1, #129
  49 000e 0B43     		orrs	r3, r1
  50 0010 1360     		str	r3, [r2]
 217:Drivers/STM32F0xx_HAL_Driver/Src/stm32f0xx_hal_rcc.c **** 
 218:Drivers/STM32F0xx_HAL_Driver/Src/stm32f0xx_hal_rcc.c ****   /* Wait till HSI is ready */
 219:Drivers/STM32F0xx_HAL_Driver/Src/stm32f0xx_hal_rcc.c ****   while (READ_BIT(RCC->CR, RCC_CR_HSIRDY) == RESET)
  51              		.loc 1 219 3 view .LVU5
  52              	.LVL2:
  53              	.L2:
  54              		.loc 1 219 9 view .LVU6
  55              		.loc 1 219 10 is_stmt 0 view .LVU7
  56 0012 264B     		ldr	r3, .L17
  57 0014 1B68     		ldr	r3, [r3]
  58              		.loc 1 219 9 view .LVU8
  59 0016 9B07     		lsls	r3, r3, #30
  60 0018 07D4     		bmi	.L13
 220:Drivers/STM32F0xx_HAL_Driver/Src/stm32f0xx_hal_rcc.c ****   {
 221:Drivers/STM32F0xx_HAL_Driver/Src/stm32f0xx_hal_rcc.c ****     if ((HAL_GetTick() - tickstart) > HSI_TIMEOUT_VALUE)
  61              		.loc 1 221 5 is_stmt 1 view .LVU9
  62              		.loc 1 221 10 is_stmt 0 view .LVU10
  63 001a FFF7FEFF 		bl	HAL_GetTick
  64              	.LVL3:
  65              		.loc 1 221 24 view .LVU11
ARM GAS  /tmp/ccAPLIyc.s 			page 6


  66 001e 001B     		subs	r0, r0, r4
  67              		.loc 1 221 8 view .LVU12
  68 0020 0228     		cmp	r0, #2
  69 0022 F6D9     		bls	.L2
 222:Drivers/STM32F0xx_HAL_Driver/Src/stm32f0xx_hal_rcc.c ****     {
 223:Drivers/STM32F0xx_HAL_Driver/Src/stm32f0xx_hal_rcc.c ****       return HAL_TIMEOUT;
  70              		.loc 1 223 14 view .LVU13
  71 0024 0324     		movs	r4, #3
  72              	.LVL4:
  73              	.L3:
 224:Drivers/STM32F0xx_HAL_Driver/Src/stm32f0xx_hal_rcc.c ****     }
 225:Drivers/STM32F0xx_HAL_Driver/Src/stm32f0xx_hal_rcc.c ****   }
 226:Drivers/STM32F0xx_HAL_Driver/Src/stm32f0xx_hal_rcc.c **** 
 227:Drivers/STM32F0xx_HAL_Driver/Src/stm32f0xx_hal_rcc.c ****   /* Reset SW[1:0], HPRE[3:0], PPRE[2:0] and MCOSEL[2:0] bits */
 228:Drivers/STM32F0xx_HAL_Driver/Src/stm32f0xx_hal_rcc.c ****   CLEAR_BIT(RCC->CFGR, RCC_CFGR_SW | RCC_CFGR_HPRE | RCC_CFGR_PPRE | RCC_CFGR_MCO);
 229:Drivers/STM32F0xx_HAL_Driver/Src/stm32f0xx_hal_rcc.c **** 
 230:Drivers/STM32F0xx_HAL_Driver/Src/stm32f0xx_hal_rcc.c ****   /* Wait till HSI as SYSCLK status is enabled */
 231:Drivers/STM32F0xx_HAL_Driver/Src/stm32f0xx_hal_rcc.c ****   while (READ_BIT(RCC->CFGR, RCC_CFGR_SWS) != RESET)
 232:Drivers/STM32F0xx_HAL_Driver/Src/stm32f0xx_hal_rcc.c ****   {
 233:Drivers/STM32F0xx_HAL_Driver/Src/stm32f0xx_hal_rcc.c ****     if ((HAL_GetTick() - tickstart) > CLOCKSWITCH_TIMEOUT_VALUE)
 234:Drivers/STM32F0xx_HAL_Driver/Src/stm32f0xx_hal_rcc.c ****     {
 235:Drivers/STM32F0xx_HAL_Driver/Src/stm32f0xx_hal_rcc.c ****       return HAL_TIMEOUT;
 236:Drivers/STM32F0xx_HAL_Driver/Src/stm32f0xx_hal_rcc.c ****     }
 237:Drivers/STM32F0xx_HAL_Driver/Src/stm32f0xx_hal_rcc.c ****   }
 238:Drivers/STM32F0xx_HAL_Driver/Src/stm32f0xx_hal_rcc.c **** 
 239:Drivers/STM32F0xx_HAL_Driver/Src/stm32f0xx_hal_rcc.c ****   /* Update the SystemCoreClock global variable for HSI as system clock source */
 240:Drivers/STM32F0xx_HAL_Driver/Src/stm32f0xx_hal_rcc.c ****   SystemCoreClock = HSI_VALUE;
 241:Drivers/STM32F0xx_HAL_Driver/Src/stm32f0xx_hal_rcc.c **** 
 242:Drivers/STM32F0xx_HAL_Driver/Src/stm32f0xx_hal_rcc.c ****   /* Adapt Systick interrupt period */
 243:Drivers/STM32F0xx_HAL_Driver/Src/stm32f0xx_hal_rcc.c ****   if (HAL_InitTick(uwTickPrio) != HAL_OK)
 244:Drivers/STM32F0xx_HAL_Driver/Src/stm32f0xx_hal_rcc.c ****   {
 245:Drivers/STM32F0xx_HAL_Driver/Src/stm32f0xx_hal_rcc.c ****     return HAL_ERROR;
 246:Drivers/STM32F0xx_HAL_Driver/Src/stm32f0xx_hal_rcc.c ****   }
 247:Drivers/STM32F0xx_HAL_Driver/Src/stm32f0xx_hal_rcc.c **** 
 248:Drivers/STM32F0xx_HAL_Driver/Src/stm32f0xx_hal_rcc.c ****   /* Reset HSEON, CSSON, PLLON bits */
 249:Drivers/STM32F0xx_HAL_Driver/Src/stm32f0xx_hal_rcc.c ****   CLEAR_BIT(RCC->CR, RCC_CR_PLLON | RCC_CR_CSSON | RCC_CR_HSEON);
 250:Drivers/STM32F0xx_HAL_Driver/Src/stm32f0xx_hal_rcc.c ****   
 251:Drivers/STM32F0xx_HAL_Driver/Src/stm32f0xx_hal_rcc.c ****   /* Reset HSEBYP bit */
 252:Drivers/STM32F0xx_HAL_Driver/Src/stm32f0xx_hal_rcc.c ****   CLEAR_BIT(RCC->CR, RCC_CR_HSEBYP);
 253:Drivers/STM32F0xx_HAL_Driver/Src/stm32f0xx_hal_rcc.c **** 
 254:Drivers/STM32F0xx_HAL_Driver/Src/stm32f0xx_hal_rcc.c ****   /* Get start tick */
 255:Drivers/STM32F0xx_HAL_Driver/Src/stm32f0xx_hal_rcc.c ****   tickstart = HAL_GetTick();
 256:Drivers/STM32F0xx_HAL_Driver/Src/stm32f0xx_hal_rcc.c ****   
 257:Drivers/STM32F0xx_HAL_Driver/Src/stm32f0xx_hal_rcc.c ****   /* Wait till PLLRDY is cleared */
 258:Drivers/STM32F0xx_HAL_Driver/Src/stm32f0xx_hal_rcc.c ****   while(READ_BIT(RCC->CR, RCC_CR_PLLRDY) != RESET)
 259:Drivers/STM32F0xx_HAL_Driver/Src/stm32f0xx_hal_rcc.c ****   {
 260:Drivers/STM32F0xx_HAL_Driver/Src/stm32f0xx_hal_rcc.c ****     if((HAL_GetTick() - tickstart) > PLL_TIMEOUT_VALUE)
 261:Drivers/STM32F0xx_HAL_Driver/Src/stm32f0xx_hal_rcc.c ****     {
 262:Drivers/STM32F0xx_HAL_Driver/Src/stm32f0xx_hal_rcc.c ****       return HAL_TIMEOUT;
 263:Drivers/STM32F0xx_HAL_Driver/Src/stm32f0xx_hal_rcc.c ****     }
 264:Drivers/STM32F0xx_HAL_Driver/Src/stm32f0xx_hal_rcc.c ****   }
 265:Drivers/STM32F0xx_HAL_Driver/Src/stm32f0xx_hal_rcc.c **** 
 266:Drivers/STM32F0xx_HAL_Driver/Src/stm32f0xx_hal_rcc.c ****   /* Reset CFGR register */
 267:Drivers/STM32F0xx_HAL_Driver/Src/stm32f0xx_hal_rcc.c ****   CLEAR_REG(RCC->CFGR);
 268:Drivers/STM32F0xx_HAL_Driver/Src/stm32f0xx_hal_rcc.c **** 
 269:Drivers/STM32F0xx_HAL_Driver/Src/stm32f0xx_hal_rcc.c ****   /* Reset CFGR2 register */
 270:Drivers/STM32F0xx_HAL_Driver/Src/stm32f0xx_hal_rcc.c ****   CLEAR_REG(RCC->CFGR2);
ARM GAS  /tmp/ccAPLIyc.s 			page 7


 271:Drivers/STM32F0xx_HAL_Driver/Src/stm32f0xx_hal_rcc.c **** 
 272:Drivers/STM32F0xx_HAL_Driver/Src/stm32f0xx_hal_rcc.c ****   /* Reset CFGR3 register */
 273:Drivers/STM32F0xx_HAL_Driver/Src/stm32f0xx_hal_rcc.c ****   CLEAR_REG(RCC->CFGR3);
 274:Drivers/STM32F0xx_HAL_Driver/Src/stm32f0xx_hal_rcc.c **** 
 275:Drivers/STM32F0xx_HAL_Driver/Src/stm32f0xx_hal_rcc.c ****   /* Disable all interrupts */
 276:Drivers/STM32F0xx_HAL_Driver/Src/stm32f0xx_hal_rcc.c ****   CLEAR_REG(RCC->CIR);
 277:Drivers/STM32F0xx_HAL_Driver/Src/stm32f0xx_hal_rcc.c **** 
 278:Drivers/STM32F0xx_HAL_Driver/Src/stm32f0xx_hal_rcc.c ****   /* Clear all reset flags */
 279:Drivers/STM32F0xx_HAL_Driver/Src/stm32f0xx_hal_rcc.c ****   __HAL_RCC_CLEAR_RESET_FLAGS();
 280:Drivers/STM32F0xx_HAL_Driver/Src/stm32f0xx_hal_rcc.c **** 
 281:Drivers/STM32F0xx_HAL_Driver/Src/stm32f0xx_hal_rcc.c ****   return HAL_OK;
 282:Drivers/STM32F0xx_HAL_Driver/Src/stm32f0xx_hal_rcc.c **** }
  74              		.loc 1 282 1 view .LVU14
  75 0026 2000     		movs	r0, r4
  76              		@ sp needed
  77 0028 70BD     		pop	{r4, r5, r6, pc}
  78              	.LVL5:
  79              	.L13:
 228:Drivers/STM32F0xx_HAL_Driver/Src/stm32f0xx_hal_rcc.c **** 
  80              		.loc 1 228 3 is_stmt 1 view .LVU15
  81 002a 204A     		ldr	r2, .L17
  82 002c 5368     		ldr	r3, [r2, #4]
  83 002e 2049     		ldr	r1, .L17+4
  84 0030 0B40     		ands	r3, r1
  85 0032 5360     		str	r3, [r2, #4]
 231:Drivers/STM32F0xx_HAL_Driver/Src/stm32f0xx_hal_rcc.c ****   {
  86              		.loc 1 231 3 view .LVU16
  87              	.L5:
 231:Drivers/STM32F0xx_HAL_Driver/Src/stm32f0xx_hal_rcc.c ****   {
  88              		.loc 1 231 9 view .LVU17
 231:Drivers/STM32F0xx_HAL_Driver/Src/stm32f0xx_hal_rcc.c ****   {
  89              		.loc 1 231 10 is_stmt 0 view .LVU18
  90 0034 1D4B     		ldr	r3, .L17
  91 0036 5B68     		ldr	r3, [r3, #4]
  92 0038 0C22     		movs	r2, #12
 231:Drivers/STM32F0xx_HAL_Driver/Src/stm32f0xx_hal_rcc.c ****   {
  93              		.loc 1 231 9 view .LVU19
  94 003a 1A42     		tst	r2, r3
  95 003c 07D0     		beq	.L14
 233:Drivers/STM32F0xx_HAL_Driver/Src/stm32f0xx_hal_rcc.c ****     {
  96              		.loc 1 233 5 is_stmt 1 view .LVU20
 233:Drivers/STM32F0xx_HAL_Driver/Src/stm32f0xx_hal_rcc.c ****     {
  97              		.loc 1 233 10 is_stmt 0 view .LVU21
  98 003e FFF7FEFF 		bl	HAL_GetTick
  99              	.LVL6:
 233:Drivers/STM32F0xx_HAL_Driver/Src/stm32f0xx_hal_rcc.c ****     {
 100              		.loc 1 233 24 view .LVU22
 101 0042 001B     		subs	r0, r0, r4
 233:Drivers/STM32F0xx_HAL_Driver/Src/stm32f0xx_hal_rcc.c ****     {
 102              		.loc 1 233 8 view .LVU23
 103 0044 1B4B     		ldr	r3, .L17+8
 104 0046 9842     		cmp	r0, r3
 105 0048 F4D9     		bls	.L5
 235:Drivers/STM32F0xx_HAL_Driver/Src/stm32f0xx_hal_rcc.c ****     }
 106              		.loc 1 235 14 view .LVU24
 107 004a 0324     		movs	r4, #3
 108              	.LVL7:
ARM GAS  /tmp/ccAPLIyc.s 			page 8


 235:Drivers/STM32F0xx_HAL_Driver/Src/stm32f0xx_hal_rcc.c ****     }
 109              		.loc 1 235 14 view .LVU25
 110 004c EBE7     		b	.L3
 111              	.LVL8:
 112              	.L14:
 240:Drivers/STM32F0xx_HAL_Driver/Src/stm32f0xx_hal_rcc.c **** 
 113              		.loc 1 240 3 is_stmt 1 view .LVU26
 240:Drivers/STM32F0xx_HAL_Driver/Src/stm32f0xx_hal_rcc.c **** 
 114              		.loc 1 240 19 is_stmt 0 view .LVU27
 115 004e 1A4B     		ldr	r3, .L17+12
 116 0050 1A4A     		ldr	r2, .L17+16
 117 0052 1A60     		str	r2, [r3]
 243:Drivers/STM32F0xx_HAL_Driver/Src/stm32f0xx_hal_rcc.c ****   {
 118              		.loc 1 243 3 is_stmt 1 view .LVU28
 243:Drivers/STM32F0xx_HAL_Driver/Src/stm32f0xx_hal_rcc.c ****   {
 119              		.loc 1 243 7 is_stmt 0 view .LVU29
 120 0054 1A4B     		ldr	r3, .L17+20
 121 0056 1868     		ldr	r0, [r3]
 122 0058 FFF7FEFF 		bl	HAL_InitTick
 123              	.LVL9:
 124 005c 041E     		subs	r4, r0, #0
 125              	.LVL10:
 243:Drivers/STM32F0xx_HAL_Driver/Src/stm32f0xx_hal_rcc.c ****   {
 126              		.loc 1 243 6 view .LVU30
 127 005e 01D0     		beq	.L15
 245:Drivers/STM32F0xx_HAL_Driver/Src/stm32f0xx_hal_rcc.c ****   }
 128              		.loc 1 245 12 view .LVU31
 129 0060 0124     		movs	r4, #1
 130 0062 E0E7     		b	.L3
 131              	.L15:
 249:Drivers/STM32F0xx_HAL_Driver/Src/stm32f0xx_hal_rcc.c ****   
 132              		.loc 1 249 3 is_stmt 1 view .LVU32
 133 0064 114B     		ldr	r3, .L17
 134 0066 1A68     		ldr	r2, [r3]
 135 0068 1649     		ldr	r1, .L17+24
 136 006a 0A40     		ands	r2, r1
 137 006c 1A60     		str	r2, [r3]
 252:Drivers/STM32F0xx_HAL_Driver/Src/stm32f0xx_hal_rcc.c **** 
 138              		.loc 1 252 3 view .LVU33
 139 006e 1A68     		ldr	r2, [r3]
 140 0070 1549     		ldr	r1, .L17+28
 141 0072 0A40     		ands	r2, r1
 142 0074 1A60     		str	r2, [r3]
 255:Drivers/STM32F0xx_HAL_Driver/Src/stm32f0xx_hal_rcc.c ****   
 143              		.loc 1 255 3 view .LVU34
 255:Drivers/STM32F0xx_HAL_Driver/Src/stm32f0xx_hal_rcc.c ****   
 144              		.loc 1 255 15 is_stmt 0 view .LVU35
 145 0076 FFF7FEFF 		bl	HAL_GetTick
 146              	.LVL11:
 147 007a 0500     		movs	r5, r0
 148              	.LVL12:
 258:Drivers/STM32F0xx_HAL_Driver/Src/stm32f0xx_hal_rcc.c ****   {
 149              		.loc 1 258 3 is_stmt 1 view .LVU36
 150              	.L7:
 258:Drivers/STM32F0xx_HAL_Driver/Src/stm32f0xx_hal_rcc.c ****   {
 151              		.loc 1 258 8 view .LVU37
 258:Drivers/STM32F0xx_HAL_Driver/Src/stm32f0xx_hal_rcc.c ****   {
ARM GAS  /tmp/ccAPLIyc.s 			page 9


 152              		.loc 1 258 9 is_stmt 0 view .LVU38
 153 007c 0B4B     		ldr	r3, .L17
 154 007e 1B68     		ldr	r3, [r3]
 258:Drivers/STM32F0xx_HAL_Driver/Src/stm32f0xx_hal_rcc.c ****   {
 155              		.loc 1 258 8 view .LVU39
 156 0080 9B01     		lsls	r3, r3, #6
 157 0082 06D5     		bpl	.L16
 260:Drivers/STM32F0xx_HAL_Driver/Src/stm32f0xx_hal_rcc.c ****     {
 158              		.loc 1 260 5 is_stmt 1 view .LVU40
 260:Drivers/STM32F0xx_HAL_Driver/Src/stm32f0xx_hal_rcc.c ****     {
 159              		.loc 1 260 9 is_stmt 0 view .LVU41
 160 0084 FFF7FEFF 		bl	HAL_GetTick
 161              	.LVL13:
 260:Drivers/STM32F0xx_HAL_Driver/Src/stm32f0xx_hal_rcc.c ****     {
 162              		.loc 1 260 23 view .LVU42
 163 0088 401B     		subs	r0, r0, r5
 260:Drivers/STM32F0xx_HAL_Driver/Src/stm32f0xx_hal_rcc.c ****     {
 164              		.loc 1 260 7 view .LVU43
 165 008a 0228     		cmp	r0, #2
 166 008c F6D9     		bls	.L7
 262:Drivers/STM32F0xx_HAL_Driver/Src/stm32f0xx_hal_rcc.c ****     }
 167              		.loc 1 262 14 view .LVU44
 168 008e 0324     		movs	r4, #3
 169 0090 C9E7     		b	.L3
 170              	.L16:
 267:Drivers/STM32F0xx_HAL_Driver/Src/stm32f0xx_hal_rcc.c **** 
 171              		.loc 1 267 3 is_stmt 1 view .LVU45
 172 0092 064B     		ldr	r3, .L17
 173 0094 0022     		movs	r2, #0
 174 0096 5A60     		str	r2, [r3, #4]
 270:Drivers/STM32F0xx_HAL_Driver/Src/stm32f0xx_hal_rcc.c **** 
 175              		.loc 1 270 3 view .LVU46
 176 0098 DA62     		str	r2, [r3, #44]
 273:Drivers/STM32F0xx_HAL_Driver/Src/stm32f0xx_hal_rcc.c **** 
 177              		.loc 1 273 3 view .LVU47
 178 009a 1A63     		str	r2, [r3, #48]
 276:Drivers/STM32F0xx_HAL_Driver/Src/stm32f0xx_hal_rcc.c **** 
 179              		.loc 1 276 3 view .LVU48
 180 009c 9A60     		str	r2, [r3, #8]
 279:Drivers/STM32F0xx_HAL_Driver/Src/stm32f0xx_hal_rcc.c **** 
 181              		.loc 1 279 3 view .LVU49
 182 009e 596A     		ldr	r1, [r3, #36]
 183 00a0 8022     		movs	r2, #128
 184 00a2 5204     		lsls	r2, r2, #17
 185 00a4 0A43     		orrs	r2, r1
 186 00a6 5A62     		str	r2, [r3, #36]
 281:Drivers/STM32F0xx_HAL_Driver/Src/stm32f0xx_hal_rcc.c **** }
 187              		.loc 1 281 3 view .LVU50
 281:Drivers/STM32F0xx_HAL_Driver/Src/stm32f0xx_hal_rcc.c **** }
 188              		.loc 1 281 10 is_stmt 0 view .LVU51
 189 00a8 BDE7     		b	.L3
 190              	.L18:
 191 00aa C046     		.align	2
 192              	.L17:
 193 00ac 00100240 		.word	1073876992
 194 00b0 0CF8FFF0 		.word	-251660276
 195 00b4 88130000 		.word	5000
ARM GAS  /tmp/ccAPLIyc.s 			page 10


 196 00b8 00000000 		.word	SystemCoreClock
 197 00bc 00127A00 		.word	8000000
 198 00c0 00000000 		.word	uwTickPrio
 199 00c4 FFFFF6FE 		.word	-17367041
 200 00c8 FFFFFBFF 		.word	-262145
 201              		.cfi_endproc
 202              	.LFE40:
 204              		.section	.text.HAL_RCC_OscConfig,"ax",%progbits
 205              		.align	1
 206              		.global	HAL_RCC_OscConfig
 207              		.syntax unified
 208              		.code	16
 209              		.thumb_func
 210              		.fpu softvfp
 212              	HAL_RCC_OscConfig:
 213              	.LVL14:
 214              	.LFB41:
 283:Drivers/STM32F0xx_HAL_Driver/Src/stm32f0xx_hal_rcc.c **** 
 284:Drivers/STM32F0xx_HAL_Driver/Src/stm32f0xx_hal_rcc.c **** /**
 285:Drivers/STM32F0xx_HAL_Driver/Src/stm32f0xx_hal_rcc.c ****   * @brief  Initializes the RCC Oscillators according to the specified parameters in the
 286:Drivers/STM32F0xx_HAL_Driver/Src/stm32f0xx_hal_rcc.c ****   *         RCC_OscInitTypeDef.
 287:Drivers/STM32F0xx_HAL_Driver/Src/stm32f0xx_hal_rcc.c ****   * @param  RCC_OscInitStruct pointer to an RCC_OscInitTypeDef structure that
 288:Drivers/STM32F0xx_HAL_Driver/Src/stm32f0xx_hal_rcc.c ****   *         contains the configuration information for the RCC Oscillators.
 289:Drivers/STM32F0xx_HAL_Driver/Src/stm32f0xx_hal_rcc.c ****   * @note   The PLL is not disabled when used as system clock.
 290:Drivers/STM32F0xx_HAL_Driver/Src/stm32f0xx_hal_rcc.c ****   * @note   Transitions LSE Bypass to LSE On and LSE On to LSE Bypass are not
 291:Drivers/STM32F0xx_HAL_Driver/Src/stm32f0xx_hal_rcc.c ****   *         supported by this macro. User should request a transition to LSE Off
 292:Drivers/STM32F0xx_HAL_Driver/Src/stm32f0xx_hal_rcc.c ****   *         first and then LSE On or LSE Bypass.
 293:Drivers/STM32F0xx_HAL_Driver/Src/stm32f0xx_hal_rcc.c ****   * @note   Transition HSE Bypass to HSE On and HSE On to HSE Bypass are not
 294:Drivers/STM32F0xx_HAL_Driver/Src/stm32f0xx_hal_rcc.c ****   *         supported by this macro. User should request a transition to HSE Off
 295:Drivers/STM32F0xx_HAL_Driver/Src/stm32f0xx_hal_rcc.c ****   *         first and then HSE On or HSE Bypass.
 296:Drivers/STM32F0xx_HAL_Driver/Src/stm32f0xx_hal_rcc.c ****   * @retval HAL status
 297:Drivers/STM32F0xx_HAL_Driver/Src/stm32f0xx_hal_rcc.c ****   */
 298:Drivers/STM32F0xx_HAL_Driver/Src/stm32f0xx_hal_rcc.c **** HAL_StatusTypeDef HAL_RCC_OscConfig(RCC_OscInitTypeDef  *RCC_OscInitStruct)
 299:Drivers/STM32F0xx_HAL_Driver/Src/stm32f0xx_hal_rcc.c **** {
 215              		.loc 1 299 1 is_stmt 1 view -0
 216              		.cfi_startproc
 217              		@ args = 0, pretend = 0, frame = 8
 218              		@ frame_needed = 0, uses_anonymous_args = 0
 219              		.loc 1 299 1 is_stmt 0 view .LVU53
 220 0000 70B5     		push	{r4, r5, r6, lr}
 221              	.LCFI1:
 222              		.cfi_def_cfa_offset 16
 223              		.cfi_offset 4, -16
 224              		.cfi_offset 5, -12
 225              		.cfi_offset 6, -8
 226              		.cfi_offset 14, -4
 227 0002 82B0     		sub	sp, sp, #8
 228              	.LCFI2:
 229              		.cfi_def_cfa_offset 24
 230 0004 041E     		subs	r4, r0, #0
 300:Drivers/STM32F0xx_HAL_Driver/Src/stm32f0xx_hal_rcc.c ****   uint32_t tickstart;
 231              		.loc 1 300 3 is_stmt 1 view .LVU54
 301:Drivers/STM32F0xx_HAL_Driver/Src/stm32f0xx_hal_rcc.c ****   uint32_t pll_config;
 232              		.loc 1 301 3 view .LVU55
 302:Drivers/STM32F0xx_HAL_Driver/Src/stm32f0xx_hal_rcc.c ****   uint32_t pll_config2;
 233              		.loc 1 302 3 view .LVU56
 303:Drivers/STM32F0xx_HAL_Driver/Src/stm32f0xx_hal_rcc.c **** 
ARM GAS  /tmp/ccAPLIyc.s 			page 11


 304:Drivers/STM32F0xx_HAL_Driver/Src/stm32f0xx_hal_rcc.c ****   /* Check Null pointer */
 305:Drivers/STM32F0xx_HAL_Driver/Src/stm32f0xx_hal_rcc.c ****   if(RCC_OscInitStruct == NULL)
 234              		.loc 1 305 3 view .LVU57
 235              		.loc 1 305 5 is_stmt 0 view .LVU58
 236 0006 00D1     		bne	.LCB195
 237 0008 2EE2     		b	.L78	@long jump
 238              	.LCB195:
 306:Drivers/STM32F0xx_HAL_Driver/Src/stm32f0xx_hal_rcc.c ****   {
 307:Drivers/STM32F0xx_HAL_Driver/Src/stm32f0xx_hal_rcc.c ****     return HAL_ERROR;
 308:Drivers/STM32F0xx_HAL_Driver/Src/stm32f0xx_hal_rcc.c ****   }
 309:Drivers/STM32F0xx_HAL_Driver/Src/stm32f0xx_hal_rcc.c **** 
 310:Drivers/STM32F0xx_HAL_Driver/Src/stm32f0xx_hal_rcc.c ****   /* Check the parameters */
 311:Drivers/STM32F0xx_HAL_Driver/Src/stm32f0xx_hal_rcc.c ****   assert_param(IS_RCC_OSCILLATORTYPE(RCC_OscInitStruct->OscillatorType));
 239              		.loc 1 311 3 is_stmt 1 view .LVU59
 312:Drivers/STM32F0xx_HAL_Driver/Src/stm32f0xx_hal_rcc.c **** 
 313:Drivers/STM32F0xx_HAL_Driver/Src/stm32f0xx_hal_rcc.c ****   /*------------------------------- HSE Configuration ------------------------*/ 
 314:Drivers/STM32F0xx_HAL_Driver/Src/stm32f0xx_hal_rcc.c ****   if(((RCC_OscInitStruct->OscillatorType) & RCC_OSCILLATORTYPE_HSE) == RCC_OSCILLATORTYPE_HSE)
 240              		.loc 1 314 3 view .LVU60
 241              		.loc 1 314 5 is_stmt 0 view .LVU61
 242 000a 0368     		ldr	r3, [r0]
 243 000c DB07     		lsls	r3, r3, #31
 244 000e 26D5     		bpl	.L21
 315:Drivers/STM32F0xx_HAL_Driver/Src/stm32f0xx_hal_rcc.c ****   {
 316:Drivers/STM32F0xx_HAL_Driver/Src/stm32f0xx_hal_rcc.c ****     /* Check the parameters */
 317:Drivers/STM32F0xx_HAL_Driver/Src/stm32f0xx_hal_rcc.c ****     assert_param(IS_RCC_HSE(RCC_OscInitStruct->HSEState));
 245              		.loc 1 317 5 is_stmt 1 view .LVU62
 318:Drivers/STM32F0xx_HAL_Driver/Src/stm32f0xx_hal_rcc.c **** 
 319:Drivers/STM32F0xx_HAL_Driver/Src/stm32f0xx_hal_rcc.c ****     /* When the HSE is used as system clock or clock source for PLL in these cases it is not allowe
 320:Drivers/STM32F0xx_HAL_Driver/Src/stm32f0xx_hal_rcc.c ****     if((__HAL_RCC_GET_SYSCLK_SOURCE() == RCC_SYSCLKSOURCE_STATUS_HSE) 
 246              		.loc 1 320 5 view .LVU63
 247              		.loc 1 320 9 is_stmt 0 view .LVU64
 248 0010 AE4B     		ldr	r3, .L117
 249 0012 5A68     		ldr	r2, [r3, #4]
 250 0014 0C23     		movs	r3, #12
 251 0016 1340     		ands	r3, r2
 252              		.loc 1 320 7 view .LVU65
 253 0018 042B     		cmp	r3, #4
 254 001a 18D0     		beq	.L22
 321:Drivers/STM32F0xx_HAL_Driver/Src/stm32f0xx_hal_rcc.c ****        || ((__HAL_RCC_GET_SYSCLK_SOURCE() == RCC_SYSCLKSOURCE_STATUS_PLLCLK) && (__HAL_RCC_GET_PLL_
 255              		.loc 1 321 13 view .LVU66
 256 001c AB4B     		ldr	r3, .L117
 257 001e 5A68     		ldr	r2, [r3, #4]
 258 0020 0C23     		movs	r3, #12
 259 0022 1340     		ands	r3, r2
 260              		.loc 1 321 8 view .LVU67
 261 0024 082B     		cmp	r3, #8
 262 0026 0ED0     		beq	.L101
 263              	.L23:
 322:Drivers/STM32F0xx_HAL_Driver/Src/stm32f0xx_hal_rcc.c ****     {
 323:Drivers/STM32F0xx_HAL_Driver/Src/stm32f0xx_hal_rcc.c ****       if((__HAL_RCC_GET_FLAG(RCC_FLAG_HSERDY) != RESET) && (RCC_OscInitStruct->HSEState == RCC_HSE_
 324:Drivers/STM32F0xx_HAL_Driver/Src/stm32f0xx_hal_rcc.c ****       {
 325:Drivers/STM32F0xx_HAL_Driver/Src/stm32f0xx_hal_rcc.c ****         return HAL_ERROR;
 326:Drivers/STM32F0xx_HAL_Driver/Src/stm32f0xx_hal_rcc.c ****       }
 327:Drivers/STM32F0xx_HAL_Driver/Src/stm32f0xx_hal_rcc.c ****     }
 328:Drivers/STM32F0xx_HAL_Driver/Src/stm32f0xx_hal_rcc.c ****     else
 329:Drivers/STM32F0xx_HAL_Driver/Src/stm32f0xx_hal_rcc.c ****     {
 330:Drivers/STM32F0xx_HAL_Driver/Src/stm32f0xx_hal_rcc.c ****       /* Set the new HSE configuration ---------------------------------------*/
ARM GAS  /tmp/ccAPLIyc.s 			page 12


 331:Drivers/STM32F0xx_HAL_Driver/Src/stm32f0xx_hal_rcc.c ****       __HAL_RCC_HSE_CONFIG(RCC_OscInitStruct->HSEState);
 264              		.loc 1 331 7 is_stmt 1 view .LVU68
 265              		.loc 1 331 7 view .LVU69
 266 0028 6368     		ldr	r3, [r4, #4]
 267 002a 012B     		cmp	r3, #1
 268 002c 3CD0     		beq	.L102
 269              		.loc 1 331 7 discriminator 2 view .LVU70
 270 002e 002B     		cmp	r3, #0
 271 0030 51D1     		bne	.L26
 272              		.loc 1 331 7 discriminator 4 view .LVU71
 273 0032 A64B     		ldr	r3, .L117
 274 0034 1A68     		ldr	r2, [r3]
 275 0036 A649     		ldr	r1, .L117+4
 276 0038 0A40     		ands	r2, r1
 277 003a 1A60     		str	r2, [r3]
 278              		.loc 1 331 7 discriminator 4 view .LVU72
 279 003c 1A68     		ldr	r2, [r3]
 280 003e A549     		ldr	r1, .L117+8
 281 0040 0A40     		ands	r2, r1
 282 0042 1A60     		str	r2, [r3]
 283 0044 36E0     		b	.L25
 284              	.L101:
 321:Drivers/STM32F0xx_HAL_Driver/Src/stm32f0xx_hal_rcc.c ****        || ((__HAL_RCC_GET_SYSCLK_SOURCE() == RCC_SYSCLKSOURCE_STATUS_PLLCLK) && (__HAL_RCC_GET_PLL_
 285              		.loc 1 321 82 is_stmt 0 discriminator 1 view .LVU73
 286 0046 A14B     		ldr	r3, .L117
 287 0048 5B68     		ldr	r3, [r3, #4]
 321:Drivers/STM32F0xx_HAL_Driver/Src/stm32f0xx_hal_rcc.c ****        || ((__HAL_RCC_GET_SYSCLK_SOURCE() == RCC_SYSCLKSOURCE_STATUS_PLLCLK) && (__HAL_RCC_GET_PLL_
 288              		.loc 1 321 78 discriminator 1 view .LVU74
 289 004a DB03     		lsls	r3, r3, #15
 290 004c ECD5     		bpl	.L23
 291              	.L22:
 323:Drivers/STM32F0xx_HAL_Driver/Src/stm32f0xx_hal_rcc.c ****       {
 292              		.loc 1 323 7 is_stmt 1 view .LVU75
 323:Drivers/STM32F0xx_HAL_Driver/Src/stm32f0xx_hal_rcc.c ****       {
 293              		.loc 1 323 11 is_stmt 0 view .LVU76
 294 004e 9F4B     		ldr	r3, .L117
 295 0050 1B68     		ldr	r3, [r3]
 323:Drivers/STM32F0xx_HAL_Driver/Src/stm32f0xx_hal_rcc.c ****       {
 296              		.loc 1 323 9 view .LVU77
 297 0052 9B03     		lsls	r3, r3, #14
 298 0054 03D5     		bpl	.L21
 323:Drivers/STM32F0xx_HAL_Driver/Src/stm32f0xx_hal_rcc.c ****       {
 299              		.loc 1 323 57 discriminator 1 view .LVU78
 300 0056 6368     		ldr	r3, [r4, #4]
 301 0058 002B     		cmp	r3, #0
 302 005a 00D1     		bne	.LCB260
 303 005c 07E2     		b	.L103	@long jump
 304              	.LCB260:
 305              	.LVL15:
 306              	.L21:
 332:Drivers/STM32F0xx_HAL_Driver/Src/stm32f0xx_hal_rcc.c ****       
 333:Drivers/STM32F0xx_HAL_Driver/Src/stm32f0xx_hal_rcc.c **** 
 334:Drivers/STM32F0xx_HAL_Driver/Src/stm32f0xx_hal_rcc.c ****        /* Check the HSE State */
 335:Drivers/STM32F0xx_HAL_Driver/Src/stm32f0xx_hal_rcc.c ****       if(RCC_OscInitStruct->HSEState != RCC_HSE_OFF)
 336:Drivers/STM32F0xx_HAL_Driver/Src/stm32f0xx_hal_rcc.c ****       {
 337:Drivers/STM32F0xx_HAL_Driver/Src/stm32f0xx_hal_rcc.c ****         /* Get Start Tick */
 338:Drivers/STM32F0xx_HAL_Driver/Src/stm32f0xx_hal_rcc.c ****         tickstart = HAL_GetTick();
ARM GAS  /tmp/ccAPLIyc.s 			page 13


 339:Drivers/STM32F0xx_HAL_Driver/Src/stm32f0xx_hal_rcc.c ****         
 340:Drivers/STM32F0xx_HAL_Driver/Src/stm32f0xx_hal_rcc.c ****         /* Wait till HSE is ready */
 341:Drivers/STM32F0xx_HAL_Driver/Src/stm32f0xx_hal_rcc.c ****         while(__HAL_RCC_GET_FLAG(RCC_FLAG_HSERDY) == RESET)
 342:Drivers/STM32F0xx_HAL_Driver/Src/stm32f0xx_hal_rcc.c ****         {
 343:Drivers/STM32F0xx_HAL_Driver/Src/stm32f0xx_hal_rcc.c ****           if((HAL_GetTick() - tickstart ) > HSE_TIMEOUT_VALUE)
 344:Drivers/STM32F0xx_HAL_Driver/Src/stm32f0xx_hal_rcc.c ****           {
 345:Drivers/STM32F0xx_HAL_Driver/Src/stm32f0xx_hal_rcc.c ****             return HAL_TIMEOUT;
 346:Drivers/STM32F0xx_HAL_Driver/Src/stm32f0xx_hal_rcc.c ****           }
 347:Drivers/STM32F0xx_HAL_Driver/Src/stm32f0xx_hal_rcc.c ****         }
 348:Drivers/STM32F0xx_HAL_Driver/Src/stm32f0xx_hal_rcc.c ****       }
 349:Drivers/STM32F0xx_HAL_Driver/Src/stm32f0xx_hal_rcc.c ****       else
 350:Drivers/STM32F0xx_HAL_Driver/Src/stm32f0xx_hal_rcc.c ****       {
 351:Drivers/STM32F0xx_HAL_Driver/Src/stm32f0xx_hal_rcc.c ****         /* Get Start Tick */
 352:Drivers/STM32F0xx_HAL_Driver/Src/stm32f0xx_hal_rcc.c ****         tickstart = HAL_GetTick();
 353:Drivers/STM32F0xx_HAL_Driver/Src/stm32f0xx_hal_rcc.c ****         
 354:Drivers/STM32F0xx_HAL_Driver/Src/stm32f0xx_hal_rcc.c ****         /* Wait till HSE is disabled */
 355:Drivers/STM32F0xx_HAL_Driver/Src/stm32f0xx_hal_rcc.c ****         while(__HAL_RCC_GET_FLAG(RCC_FLAG_HSERDY) != RESET)
 356:Drivers/STM32F0xx_HAL_Driver/Src/stm32f0xx_hal_rcc.c ****         {
 357:Drivers/STM32F0xx_HAL_Driver/Src/stm32f0xx_hal_rcc.c ****            if((HAL_GetTick() - tickstart ) > HSE_TIMEOUT_VALUE)
 358:Drivers/STM32F0xx_HAL_Driver/Src/stm32f0xx_hal_rcc.c ****           {
 359:Drivers/STM32F0xx_HAL_Driver/Src/stm32f0xx_hal_rcc.c ****             return HAL_TIMEOUT;
 360:Drivers/STM32F0xx_HAL_Driver/Src/stm32f0xx_hal_rcc.c ****           }
 361:Drivers/STM32F0xx_HAL_Driver/Src/stm32f0xx_hal_rcc.c ****         }
 362:Drivers/STM32F0xx_HAL_Driver/Src/stm32f0xx_hal_rcc.c ****       }
 363:Drivers/STM32F0xx_HAL_Driver/Src/stm32f0xx_hal_rcc.c ****     }
 364:Drivers/STM32F0xx_HAL_Driver/Src/stm32f0xx_hal_rcc.c ****   }
 365:Drivers/STM32F0xx_HAL_Driver/Src/stm32f0xx_hal_rcc.c ****   /*----------------------------- HSI Configuration --------------------------*/ 
 366:Drivers/STM32F0xx_HAL_Driver/Src/stm32f0xx_hal_rcc.c ****   if(((RCC_OscInitStruct->OscillatorType) & RCC_OSCILLATORTYPE_HSI) == RCC_OSCILLATORTYPE_HSI)
 307              		.loc 1 366 3 is_stmt 1 view .LVU79
 308              		.loc 1 366 5 is_stmt 0 view .LVU80
 309 005e 2368     		ldr	r3, [r4]
 310 0060 9B07     		lsls	r3, r3, #30
 311 0062 72D5     		bpl	.L33
 367:Drivers/STM32F0xx_HAL_Driver/Src/stm32f0xx_hal_rcc.c ****   {
 368:Drivers/STM32F0xx_HAL_Driver/Src/stm32f0xx_hal_rcc.c ****     /* Check the parameters */
 369:Drivers/STM32F0xx_HAL_Driver/Src/stm32f0xx_hal_rcc.c ****     assert_param(IS_RCC_HSI(RCC_OscInitStruct->HSIState));
 312              		.loc 1 369 5 is_stmt 1 view .LVU81
 370:Drivers/STM32F0xx_HAL_Driver/Src/stm32f0xx_hal_rcc.c ****     assert_param(IS_RCC_CALIBRATION_VALUE(RCC_OscInitStruct->HSICalibrationValue));
 313              		.loc 1 370 5 view .LVU82
 371:Drivers/STM32F0xx_HAL_Driver/Src/stm32f0xx_hal_rcc.c ****     
 372:Drivers/STM32F0xx_HAL_Driver/Src/stm32f0xx_hal_rcc.c ****     /* Check if HSI is used as system clock or as PLL source when PLL is selected as system clock *
 373:Drivers/STM32F0xx_HAL_Driver/Src/stm32f0xx_hal_rcc.c ****     if((__HAL_RCC_GET_SYSCLK_SOURCE() == RCC_SYSCLKSOURCE_STATUS_HSI) 
 314              		.loc 1 373 5 view .LVU83
 315              		.loc 1 373 9 is_stmt 0 view .LVU84
 316 0064 994B     		ldr	r3, .L117
 317 0066 5B68     		ldr	r3, [r3, #4]
 318 0068 0C22     		movs	r2, #12
 319              		.loc 1 373 7 view .LVU85
 320 006a 1A42     		tst	r2, r3
 321 006c 5DD0     		beq	.L34
 374:Drivers/STM32F0xx_HAL_Driver/Src/stm32f0xx_hal_rcc.c ****        || ((__HAL_RCC_GET_SYSCLK_SOURCE() == RCC_SYSCLKSOURCE_STATUS_PLLCLK) && (__HAL_RCC_GET_PLL_
 322              		.loc 1 374 13 view .LVU86
 323 006e 974B     		ldr	r3, .L117
 324 0070 5A68     		ldr	r2, [r3, #4]
 325 0072 0C23     		movs	r3, #12
 326 0074 1340     		ands	r3, r2
 327              		.loc 1 374 8 view .LVU87
ARM GAS  /tmp/ccAPLIyc.s 			page 14


 328 0076 082B     		cmp	r3, #8
 329 0078 53D0     		beq	.L104
 330              	.L35:
 375:Drivers/STM32F0xx_HAL_Driver/Src/stm32f0xx_hal_rcc.c ****     {
 376:Drivers/STM32F0xx_HAL_Driver/Src/stm32f0xx_hal_rcc.c ****       /* When HSI is used as system clock it will not disabled */
 377:Drivers/STM32F0xx_HAL_Driver/Src/stm32f0xx_hal_rcc.c ****       if((__HAL_RCC_GET_FLAG(RCC_FLAG_HSIRDY) != RESET) && (RCC_OscInitStruct->HSIState != RCC_HSI_
 378:Drivers/STM32F0xx_HAL_Driver/Src/stm32f0xx_hal_rcc.c ****       {
 379:Drivers/STM32F0xx_HAL_Driver/Src/stm32f0xx_hal_rcc.c ****         return HAL_ERROR;
 380:Drivers/STM32F0xx_HAL_Driver/Src/stm32f0xx_hal_rcc.c ****       }
 381:Drivers/STM32F0xx_HAL_Driver/Src/stm32f0xx_hal_rcc.c ****       /* Otherwise, just the calibration is allowed */
 382:Drivers/STM32F0xx_HAL_Driver/Src/stm32f0xx_hal_rcc.c ****       else
 383:Drivers/STM32F0xx_HAL_Driver/Src/stm32f0xx_hal_rcc.c ****       {
 384:Drivers/STM32F0xx_HAL_Driver/Src/stm32f0xx_hal_rcc.c ****         /* Adjusts the Internal High Speed oscillator (HSI) calibration value.*/
 385:Drivers/STM32F0xx_HAL_Driver/Src/stm32f0xx_hal_rcc.c ****         __HAL_RCC_HSI_CALIBRATIONVALUE_ADJUST(RCC_OscInitStruct->HSICalibrationValue);
 386:Drivers/STM32F0xx_HAL_Driver/Src/stm32f0xx_hal_rcc.c ****       }
 387:Drivers/STM32F0xx_HAL_Driver/Src/stm32f0xx_hal_rcc.c ****     }
 388:Drivers/STM32F0xx_HAL_Driver/Src/stm32f0xx_hal_rcc.c ****     else
 389:Drivers/STM32F0xx_HAL_Driver/Src/stm32f0xx_hal_rcc.c ****     {
 390:Drivers/STM32F0xx_HAL_Driver/Src/stm32f0xx_hal_rcc.c ****       /* Check the HSI State */
 391:Drivers/STM32F0xx_HAL_Driver/Src/stm32f0xx_hal_rcc.c ****       if(RCC_OscInitStruct->HSIState != RCC_HSI_OFF)
 331              		.loc 1 391 7 is_stmt 1 view .LVU88
 332              		.loc 1 391 9 is_stmt 0 view .LVU89
 333 007a E368     		ldr	r3, [r4, #12]
 334 007c 002B     		cmp	r3, #0
 335 007e 00D1     		bne	.LCB290
 336 0080 85E0     		b	.L37	@long jump
 337              	.LCB290:
 392:Drivers/STM32F0xx_HAL_Driver/Src/stm32f0xx_hal_rcc.c ****       {
 393:Drivers/STM32F0xx_HAL_Driver/Src/stm32f0xx_hal_rcc.c ****        /* Enable the Internal High Speed oscillator (HSI). */
 394:Drivers/STM32F0xx_HAL_Driver/Src/stm32f0xx_hal_rcc.c ****         __HAL_RCC_HSI_ENABLE();
 338              		.loc 1 394 9 is_stmt 1 view .LVU90
 339 0082 924A     		ldr	r2, .L117
 340 0084 1368     		ldr	r3, [r2]
 341 0086 0121     		movs	r1, #1
 342 0088 0B43     		orrs	r3, r1
 343 008a 1360     		str	r3, [r2]
 395:Drivers/STM32F0xx_HAL_Driver/Src/stm32f0xx_hal_rcc.c ****         
 396:Drivers/STM32F0xx_HAL_Driver/Src/stm32f0xx_hal_rcc.c ****         /* Get Start Tick */
 397:Drivers/STM32F0xx_HAL_Driver/Src/stm32f0xx_hal_rcc.c ****         tickstart = HAL_GetTick();
 344              		.loc 1 397 9 view .LVU91
 345              		.loc 1 397 21 is_stmt 0 view .LVU92
 346 008c FFF7FEFF 		bl	HAL_GetTick
 347              	.LVL16:
 348 0090 0500     		movs	r5, r0
 349              	.LVL17:
 398:Drivers/STM32F0xx_HAL_Driver/Src/stm32f0xx_hal_rcc.c ****         
 399:Drivers/STM32F0xx_HAL_Driver/Src/stm32f0xx_hal_rcc.c ****         /* Wait till HSI is ready */
 400:Drivers/STM32F0xx_HAL_Driver/Src/stm32f0xx_hal_rcc.c ****         while(__HAL_RCC_GET_FLAG(RCC_FLAG_HSIRDY) == RESET)
 350              		.loc 1 400 9 is_stmt 1 view .LVU93
 351              	.L38:
 352              		.loc 1 400 14 view .LVU94
 353              		.loc 1 400 15 is_stmt 0 view .LVU95
 354 0092 8E4B     		ldr	r3, .L117
 355 0094 1B68     		ldr	r3, [r3]
 356              		.loc 1 400 14 view .LVU96
 357 0096 9B07     		lsls	r3, r3, #30
 358 0098 70D4     		bmi	.L105
ARM GAS  /tmp/ccAPLIyc.s 			page 15


 401:Drivers/STM32F0xx_HAL_Driver/Src/stm32f0xx_hal_rcc.c ****         {
 402:Drivers/STM32F0xx_HAL_Driver/Src/stm32f0xx_hal_rcc.c ****           if((HAL_GetTick() - tickstart ) > HSI_TIMEOUT_VALUE)
 359              		.loc 1 402 11 is_stmt 1 view .LVU97
 360              		.loc 1 402 15 is_stmt 0 view .LVU98
 361 009a FFF7FEFF 		bl	HAL_GetTick
 362              	.LVL18:
 363              		.loc 1 402 29 view .LVU99
 364 009e 401B     		subs	r0, r0, r5
 365              		.loc 1 402 13 view .LVU100
 366 00a0 0228     		cmp	r0, #2
 367 00a2 F6D9     		bls	.L38
 403:Drivers/STM32F0xx_HAL_Driver/Src/stm32f0xx_hal_rcc.c ****           {
 404:Drivers/STM32F0xx_HAL_Driver/Src/stm32f0xx_hal_rcc.c ****             return HAL_TIMEOUT;
 368              		.loc 1 404 20 view .LVU101
 369 00a4 0320     		movs	r0, #3
 370 00a6 E0E1     		b	.L20
 371              	.LVL19:
 372              	.L102:
 331:Drivers/STM32F0xx_HAL_Driver/Src/stm32f0xx_hal_rcc.c ****       
 373              		.loc 1 331 7 is_stmt 1 discriminator 1 view .LVU102
 374 00a8 884A     		ldr	r2, .L117
 375 00aa 1168     		ldr	r1, [r2]
 376 00ac 8023     		movs	r3, #128
 377 00ae 5B02     		lsls	r3, r3, #9
 378 00b0 0B43     		orrs	r3, r1
 379 00b2 1360     		str	r3, [r2]
 380              	.L25:
 331:Drivers/STM32F0xx_HAL_Driver/Src/stm32f0xx_hal_rcc.c ****       
 381              		.loc 1 331 7 discriminator 10 view .LVU103
 335:Drivers/STM32F0xx_HAL_Driver/Src/stm32f0xx_hal_rcc.c ****       {
 382              		.loc 1 335 7 discriminator 10 view .LVU104
 335:Drivers/STM32F0xx_HAL_Driver/Src/stm32f0xx_hal_rcc.c ****       {
 383              		.loc 1 335 9 is_stmt 0 discriminator 10 view .LVU105
 384 00b4 6368     		ldr	r3, [r4, #4]
 385 00b6 002B     		cmp	r3, #0
 386 00b8 25D0     		beq	.L28
 338:Drivers/STM32F0xx_HAL_Driver/Src/stm32f0xx_hal_rcc.c ****         
 387              		.loc 1 338 9 is_stmt 1 view .LVU106
 338:Drivers/STM32F0xx_HAL_Driver/Src/stm32f0xx_hal_rcc.c ****         
 388              		.loc 1 338 21 is_stmt 0 view .LVU107
 389 00ba FFF7FEFF 		bl	HAL_GetTick
 390              	.LVL20:
 338:Drivers/STM32F0xx_HAL_Driver/Src/stm32f0xx_hal_rcc.c ****         
 391              		.loc 1 338 21 view .LVU108
 392 00be 0500     		movs	r5, r0
 393              	.LVL21:
 341:Drivers/STM32F0xx_HAL_Driver/Src/stm32f0xx_hal_rcc.c ****         {
 394              		.loc 1 341 9 is_stmt 1 view .LVU109
 395              	.L29:
 341:Drivers/STM32F0xx_HAL_Driver/Src/stm32f0xx_hal_rcc.c ****         {
 396              		.loc 1 341 14 view .LVU110
 341:Drivers/STM32F0xx_HAL_Driver/Src/stm32f0xx_hal_rcc.c ****         {
 397              		.loc 1 341 15 is_stmt 0 view .LVU111
 398 00c0 824B     		ldr	r3, .L117
 399 00c2 1B68     		ldr	r3, [r3]
 341:Drivers/STM32F0xx_HAL_Driver/Src/stm32f0xx_hal_rcc.c ****         {
 400              		.loc 1 341 14 view .LVU112
ARM GAS  /tmp/ccAPLIyc.s 			page 16


 401 00c4 9B03     		lsls	r3, r3, #14
 402 00c6 CAD4     		bmi	.L21
 343:Drivers/STM32F0xx_HAL_Driver/Src/stm32f0xx_hal_rcc.c ****           {
 403              		.loc 1 343 11 is_stmt 1 view .LVU113
 343:Drivers/STM32F0xx_HAL_Driver/Src/stm32f0xx_hal_rcc.c ****           {
 404              		.loc 1 343 15 is_stmt 0 view .LVU114
 405 00c8 FFF7FEFF 		bl	HAL_GetTick
 406              	.LVL22:
 343:Drivers/STM32F0xx_HAL_Driver/Src/stm32f0xx_hal_rcc.c ****           {
 407              		.loc 1 343 29 view .LVU115
 408 00cc 401B     		subs	r0, r0, r5
 343:Drivers/STM32F0xx_HAL_Driver/Src/stm32f0xx_hal_rcc.c ****           {
 409              		.loc 1 343 13 view .LVU116
 410 00ce 6428     		cmp	r0, #100
 411 00d0 F6D9     		bls	.L29
 345:Drivers/STM32F0xx_HAL_Driver/Src/stm32f0xx_hal_rcc.c ****           }
 412              		.loc 1 345 20 view .LVU117
 413 00d2 0320     		movs	r0, #3
 414 00d4 C9E1     		b	.L20
 415              	.LVL23:
 416              	.L26:
 331:Drivers/STM32F0xx_HAL_Driver/Src/stm32f0xx_hal_rcc.c ****       
 417              		.loc 1 331 7 is_stmt 1 discriminator 5 view .LVU118
 418 00d6 052B     		cmp	r3, #5
 419 00d8 09D0     		beq	.L106
 331:Drivers/STM32F0xx_HAL_Driver/Src/stm32f0xx_hal_rcc.c ****       
 420              		.loc 1 331 7 discriminator 8 view .LVU119
 421 00da 7C4B     		ldr	r3, .L117
 422 00dc 1A68     		ldr	r2, [r3]
 423 00de 7C49     		ldr	r1, .L117+4
 424 00e0 0A40     		ands	r2, r1
 425 00e2 1A60     		str	r2, [r3]
 331:Drivers/STM32F0xx_HAL_Driver/Src/stm32f0xx_hal_rcc.c ****       
 426              		.loc 1 331 7 discriminator 8 view .LVU120
 427 00e4 1A68     		ldr	r2, [r3]
 428 00e6 7B49     		ldr	r1, .L117+8
 429 00e8 0A40     		ands	r2, r1
 430 00ea 1A60     		str	r2, [r3]
 431 00ec E2E7     		b	.L25
 432              	.L106:
 331:Drivers/STM32F0xx_HAL_Driver/Src/stm32f0xx_hal_rcc.c ****       
 433              		.loc 1 331 7 discriminator 7 view .LVU121
 434 00ee 774B     		ldr	r3, .L117
 435 00f0 1968     		ldr	r1, [r3]
 436 00f2 8022     		movs	r2, #128
 437 00f4 D202     		lsls	r2, r2, #11
 438 00f6 0A43     		orrs	r2, r1
 439 00f8 1A60     		str	r2, [r3]
 331:Drivers/STM32F0xx_HAL_Driver/Src/stm32f0xx_hal_rcc.c ****       
 440              		.loc 1 331 7 discriminator 7 view .LVU122
 441 00fa 1968     		ldr	r1, [r3]
 442 00fc 8022     		movs	r2, #128
 443 00fe 5202     		lsls	r2, r2, #9
 444 0100 0A43     		orrs	r2, r1
 445 0102 1A60     		str	r2, [r3]
 446 0104 D6E7     		b	.L25
 447              	.L28:
ARM GAS  /tmp/ccAPLIyc.s 			page 17


 352:Drivers/STM32F0xx_HAL_Driver/Src/stm32f0xx_hal_rcc.c ****         
 448              		.loc 1 352 9 view .LVU123
 352:Drivers/STM32F0xx_HAL_Driver/Src/stm32f0xx_hal_rcc.c ****         
 449              		.loc 1 352 21 is_stmt 0 view .LVU124
 450 0106 FFF7FEFF 		bl	HAL_GetTick
 451              	.LVL24:
 352:Drivers/STM32F0xx_HAL_Driver/Src/stm32f0xx_hal_rcc.c ****         
 452              		.loc 1 352 21 view .LVU125
 453 010a 0500     		movs	r5, r0
 454              	.LVL25:
 355:Drivers/STM32F0xx_HAL_Driver/Src/stm32f0xx_hal_rcc.c ****         {
 455              		.loc 1 355 9 is_stmt 1 view .LVU126
 456              	.L31:
 355:Drivers/STM32F0xx_HAL_Driver/Src/stm32f0xx_hal_rcc.c ****         {
 457              		.loc 1 355 14 view .LVU127
 355:Drivers/STM32F0xx_HAL_Driver/Src/stm32f0xx_hal_rcc.c ****         {
 458              		.loc 1 355 15 is_stmt 0 view .LVU128
 459 010c 6F4B     		ldr	r3, .L117
 460 010e 1B68     		ldr	r3, [r3]
 355:Drivers/STM32F0xx_HAL_Driver/Src/stm32f0xx_hal_rcc.c ****         {
 461              		.loc 1 355 14 view .LVU129
 462 0110 9B03     		lsls	r3, r3, #14
 463 0112 A4D5     		bpl	.L21
 357:Drivers/STM32F0xx_HAL_Driver/Src/stm32f0xx_hal_rcc.c ****           {
 464              		.loc 1 357 12 is_stmt 1 view .LVU130
 357:Drivers/STM32F0xx_HAL_Driver/Src/stm32f0xx_hal_rcc.c ****           {
 465              		.loc 1 357 16 is_stmt 0 view .LVU131
 466 0114 FFF7FEFF 		bl	HAL_GetTick
 467              	.LVL26:
 357:Drivers/STM32F0xx_HAL_Driver/Src/stm32f0xx_hal_rcc.c ****           {
 468              		.loc 1 357 30 view .LVU132
 469 0118 401B     		subs	r0, r0, r5
 357:Drivers/STM32F0xx_HAL_Driver/Src/stm32f0xx_hal_rcc.c ****           {
 470              		.loc 1 357 14 view .LVU133
 471 011a 6428     		cmp	r0, #100
 472 011c F6D9     		bls	.L31
 359:Drivers/STM32F0xx_HAL_Driver/Src/stm32f0xx_hal_rcc.c ****           }
 473              		.loc 1 359 20 view .LVU134
 474 011e 0320     		movs	r0, #3
 475 0120 A3E1     		b	.L20
 476              	.LVL27:
 477              	.L104:
 374:Drivers/STM32F0xx_HAL_Driver/Src/stm32f0xx_hal_rcc.c ****     {
 478              		.loc 1 374 82 discriminator 1 view .LVU135
 479 0122 6A4B     		ldr	r3, .L117
 480 0124 5B68     		ldr	r3, [r3, #4]
 374:Drivers/STM32F0xx_HAL_Driver/Src/stm32f0xx_hal_rcc.c ****     {
 481              		.loc 1 374 78 discriminator 1 view .LVU136
 482 0126 DB03     		lsls	r3, r3, #15
 483 0128 A7D4     		bmi	.L35
 484              	.L34:
 377:Drivers/STM32F0xx_HAL_Driver/Src/stm32f0xx_hal_rcc.c ****       {
 485              		.loc 1 377 7 is_stmt 1 view .LVU137
 377:Drivers/STM32F0xx_HAL_Driver/Src/stm32f0xx_hal_rcc.c ****       {
 486              		.loc 1 377 11 is_stmt 0 view .LVU138
 487 012a 684B     		ldr	r3, .L117
 488 012c 1B68     		ldr	r3, [r3]
ARM GAS  /tmp/ccAPLIyc.s 			page 18


 377:Drivers/STM32F0xx_HAL_Driver/Src/stm32f0xx_hal_rcc.c ****       {
 489              		.loc 1 377 9 view .LVU139
 490 012e 9B07     		lsls	r3, r3, #30
 491 0130 03D5     		bpl	.L36
 377:Drivers/STM32F0xx_HAL_Driver/Src/stm32f0xx_hal_rcc.c ****       {
 492              		.loc 1 377 57 discriminator 1 view .LVU140
 493 0132 E368     		ldr	r3, [r4, #12]
 494 0134 012B     		cmp	r3, #1
 495 0136 00D0     		beq	.LCB451
 496 0138 9BE1     		b	.L82	@long jump
 497              	.LCB451:
 498              	.L36:
 385:Drivers/STM32F0xx_HAL_Driver/Src/stm32f0xx_hal_rcc.c ****       }
 499              		.loc 1 385 9 is_stmt 1 view .LVU141
 500 013a 6449     		ldr	r1, .L117
 501 013c 0B68     		ldr	r3, [r1]
 502 013e F822     		movs	r2, #248
 503 0140 9343     		bics	r3, r2
 504 0142 2269     		ldr	r2, [r4, #16]
 505 0144 D200     		lsls	r2, r2, #3
 506 0146 1343     		orrs	r3, r2
 507 0148 0B60     		str	r3, [r1]
 508              	.L33:
 405:Drivers/STM32F0xx_HAL_Driver/Src/stm32f0xx_hal_rcc.c ****           }
 406:Drivers/STM32F0xx_HAL_Driver/Src/stm32f0xx_hal_rcc.c ****         }
 407:Drivers/STM32F0xx_HAL_Driver/Src/stm32f0xx_hal_rcc.c ****                 
 408:Drivers/STM32F0xx_HAL_Driver/Src/stm32f0xx_hal_rcc.c ****         /* Adjusts the Internal High Speed oscillator (HSI) calibration value.*/
 409:Drivers/STM32F0xx_HAL_Driver/Src/stm32f0xx_hal_rcc.c ****         __HAL_RCC_HSI_CALIBRATIONVALUE_ADJUST(RCC_OscInitStruct->HSICalibrationValue);
 410:Drivers/STM32F0xx_HAL_Driver/Src/stm32f0xx_hal_rcc.c ****       }
 411:Drivers/STM32F0xx_HAL_Driver/Src/stm32f0xx_hal_rcc.c ****       else
 412:Drivers/STM32F0xx_HAL_Driver/Src/stm32f0xx_hal_rcc.c ****       {
 413:Drivers/STM32F0xx_HAL_Driver/Src/stm32f0xx_hal_rcc.c ****         /* Disable the Internal High Speed oscillator (HSI). */
 414:Drivers/STM32F0xx_HAL_Driver/Src/stm32f0xx_hal_rcc.c ****         __HAL_RCC_HSI_DISABLE();
 415:Drivers/STM32F0xx_HAL_Driver/Src/stm32f0xx_hal_rcc.c ****         
 416:Drivers/STM32F0xx_HAL_Driver/Src/stm32f0xx_hal_rcc.c ****         /* Get Start Tick */
 417:Drivers/STM32F0xx_HAL_Driver/Src/stm32f0xx_hal_rcc.c ****         tickstart = HAL_GetTick();
 418:Drivers/STM32F0xx_HAL_Driver/Src/stm32f0xx_hal_rcc.c ****         
 419:Drivers/STM32F0xx_HAL_Driver/Src/stm32f0xx_hal_rcc.c ****         /* Wait till HSI is disabled */
 420:Drivers/STM32F0xx_HAL_Driver/Src/stm32f0xx_hal_rcc.c ****         while(__HAL_RCC_GET_FLAG(RCC_FLAG_HSIRDY) != RESET)
 421:Drivers/STM32F0xx_HAL_Driver/Src/stm32f0xx_hal_rcc.c ****         {
 422:Drivers/STM32F0xx_HAL_Driver/Src/stm32f0xx_hal_rcc.c ****           if((HAL_GetTick() - tickstart ) > HSI_TIMEOUT_VALUE)
 423:Drivers/STM32F0xx_HAL_Driver/Src/stm32f0xx_hal_rcc.c ****           {
 424:Drivers/STM32F0xx_HAL_Driver/Src/stm32f0xx_hal_rcc.c ****             return HAL_TIMEOUT;
 425:Drivers/STM32F0xx_HAL_Driver/Src/stm32f0xx_hal_rcc.c ****           }
 426:Drivers/STM32F0xx_HAL_Driver/Src/stm32f0xx_hal_rcc.c ****         }
 427:Drivers/STM32F0xx_HAL_Driver/Src/stm32f0xx_hal_rcc.c ****       }
 428:Drivers/STM32F0xx_HAL_Driver/Src/stm32f0xx_hal_rcc.c ****     }
 429:Drivers/STM32F0xx_HAL_Driver/Src/stm32f0xx_hal_rcc.c ****   }
 430:Drivers/STM32F0xx_HAL_Driver/Src/stm32f0xx_hal_rcc.c ****   /*------------------------------ LSI Configuration -------------------------*/ 
 431:Drivers/STM32F0xx_HAL_Driver/Src/stm32f0xx_hal_rcc.c ****   if(((RCC_OscInitStruct->OscillatorType) & RCC_OSCILLATORTYPE_LSI) == RCC_OSCILLATORTYPE_LSI)
 509              		.loc 1 431 3 view .LVU142
 510              		.loc 1 431 5 is_stmt 0 view .LVU143
 511 014a 2368     		ldr	r3, [r4]
 512 014c 1B07     		lsls	r3, r3, #28
 513 014e 44D5     		bpl	.L42
 432:Drivers/STM32F0xx_HAL_Driver/Src/stm32f0xx_hal_rcc.c ****   {
 433:Drivers/STM32F0xx_HAL_Driver/Src/stm32f0xx_hal_rcc.c ****     /* Check the parameters */
ARM GAS  /tmp/ccAPLIyc.s 			page 19


 434:Drivers/STM32F0xx_HAL_Driver/Src/stm32f0xx_hal_rcc.c ****     assert_param(IS_RCC_LSI(RCC_OscInitStruct->LSIState));
 514              		.loc 1 434 5 is_stmt 1 view .LVU144
 435:Drivers/STM32F0xx_HAL_Driver/Src/stm32f0xx_hal_rcc.c ****     
 436:Drivers/STM32F0xx_HAL_Driver/Src/stm32f0xx_hal_rcc.c ****     /* Check the LSI State */
 437:Drivers/STM32F0xx_HAL_Driver/Src/stm32f0xx_hal_rcc.c ****     if(RCC_OscInitStruct->LSIState != RCC_LSI_OFF)
 515              		.loc 1 437 5 view .LVU145
 516              		.loc 1 437 7 is_stmt 0 view .LVU146
 517 0150 E369     		ldr	r3, [r4, #28]
 518 0152 002B     		cmp	r3, #0
 519 0154 2ED0     		beq	.L43
 438:Drivers/STM32F0xx_HAL_Driver/Src/stm32f0xx_hal_rcc.c ****     {
 439:Drivers/STM32F0xx_HAL_Driver/Src/stm32f0xx_hal_rcc.c ****       /* Enable the Internal Low Speed oscillator (LSI). */
 440:Drivers/STM32F0xx_HAL_Driver/Src/stm32f0xx_hal_rcc.c ****       __HAL_RCC_LSI_ENABLE();
 520              		.loc 1 440 7 is_stmt 1 view .LVU147
 521 0156 5D4A     		ldr	r2, .L117
 522 0158 536A     		ldr	r3, [r2, #36]
 523 015a 0121     		movs	r1, #1
 524 015c 0B43     		orrs	r3, r1
 525 015e 5362     		str	r3, [r2, #36]
 441:Drivers/STM32F0xx_HAL_Driver/Src/stm32f0xx_hal_rcc.c ****       
 442:Drivers/STM32F0xx_HAL_Driver/Src/stm32f0xx_hal_rcc.c ****       /* Get Start Tick */
 443:Drivers/STM32F0xx_HAL_Driver/Src/stm32f0xx_hal_rcc.c ****       tickstart = HAL_GetTick();
 526              		.loc 1 443 7 view .LVU148
 527              		.loc 1 443 19 is_stmt 0 view .LVU149
 528 0160 FFF7FEFF 		bl	HAL_GetTick
 529              	.LVL28:
 530 0164 0500     		movs	r5, r0
 531              	.LVL29:
 444:Drivers/STM32F0xx_HAL_Driver/Src/stm32f0xx_hal_rcc.c ****       
 445:Drivers/STM32F0xx_HAL_Driver/Src/stm32f0xx_hal_rcc.c ****       /* Wait till LSI is ready */  
 446:Drivers/STM32F0xx_HAL_Driver/Src/stm32f0xx_hal_rcc.c ****       while(__HAL_RCC_GET_FLAG(RCC_FLAG_LSIRDY) == RESET)
 532              		.loc 1 446 7 is_stmt 1 view .LVU150
 533              	.L44:
 534              		.loc 1 446 12 view .LVU151
 535              		.loc 1 446 13 is_stmt 0 view .LVU152
 536 0166 594B     		ldr	r3, .L117
 537 0168 5B6A     		ldr	r3, [r3, #36]
 538              		.loc 1 446 12 view .LVU153
 539 016a 9B07     		lsls	r3, r3, #30
 540 016c 35D4     		bmi	.L42
 447:Drivers/STM32F0xx_HAL_Driver/Src/stm32f0xx_hal_rcc.c ****       {
 448:Drivers/STM32F0xx_HAL_Driver/Src/stm32f0xx_hal_rcc.c ****         if((HAL_GetTick() - tickstart ) > LSI_TIMEOUT_VALUE)
 541              		.loc 1 448 9 is_stmt 1 view .LVU154
 542              		.loc 1 448 13 is_stmt 0 view .LVU155
 543 016e FFF7FEFF 		bl	HAL_GetTick
 544              	.LVL30:
 545              		.loc 1 448 27 view .LVU156
 546 0172 401B     		subs	r0, r0, r5
 547              		.loc 1 448 11 view .LVU157
 548 0174 0228     		cmp	r0, #2
 549 0176 F6D9     		bls	.L44
 449:Drivers/STM32F0xx_HAL_Driver/Src/stm32f0xx_hal_rcc.c ****         {
 450:Drivers/STM32F0xx_HAL_Driver/Src/stm32f0xx_hal_rcc.c ****           return HAL_TIMEOUT;
 550              		.loc 1 450 18 view .LVU158
 551 0178 0320     		movs	r0, #3
 552 017a 76E1     		b	.L20
 553              	.L105:
ARM GAS  /tmp/ccAPLIyc.s 			page 20


 409:Drivers/STM32F0xx_HAL_Driver/Src/stm32f0xx_hal_rcc.c ****       }
 554              		.loc 1 409 9 is_stmt 1 view .LVU159
 555 017c 5349     		ldr	r1, .L117
 556 017e 0B68     		ldr	r3, [r1]
 557 0180 F822     		movs	r2, #248
 558 0182 9343     		bics	r3, r2
 559 0184 2269     		ldr	r2, [r4, #16]
 560 0186 D200     		lsls	r2, r2, #3
 561 0188 1343     		orrs	r3, r2
 562 018a 0B60     		str	r3, [r1]
 563 018c DDE7     		b	.L33
 564              	.LVL31:
 565              	.L37:
 414:Drivers/STM32F0xx_HAL_Driver/Src/stm32f0xx_hal_rcc.c ****         
 566              		.loc 1 414 9 view .LVU160
 567 018e 4F4A     		ldr	r2, .L117
 568 0190 1368     		ldr	r3, [r2]
 569 0192 0121     		movs	r1, #1
 570 0194 8B43     		bics	r3, r1
 571 0196 1360     		str	r3, [r2]
 417:Drivers/STM32F0xx_HAL_Driver/Src/stm32f0xx_hal_rcc.c ****         
 572              		.loc 1 417 9 view .LVU161
 417:Drivers/STM32F0xx_HAL_Driver/Src/stm32f0xx_hal_rcc.c ****         
 573              		.loc 1 417 21 is_stmt 0 view .LVU162
 574 0198 FFF7FEFF 		bl	HAL_GetTick
 575              	.LVL32:
 576 019c 0500     		movs	r5, r0
 577              	.LVL33:
 420:Drivers/STM32F0xx_HAL_Driver/Src/stm32f0xx_hal_rcc.c ****         {
 578              		.loc 1 420 9 is_stmt 1 view .LVU163
 579              	.L40:
 420:Drivers/STM32F0xx_HAL_Driver/Src/stm32f0xx_hal_rcc.c ****         {
 580              		.loc 1 420 14 view .LVU164
 420:Drivers/STM32F0xx_HAL_Driver/Src/stm32f0xx_hal_rcc.c ****         {
 581              		.loc 1 420 15 is_stmt 0 view .LVU165
 582 019e 4B4B     		ldr	r3, .L117
 583 01a0 1B68     		ldr	r3, [r3]
 420:Drivers/STM32F0xx_HAL_Driver/Src/stm32f0xx_hal_rcc.c ****         {
 584              		.loc 1 420 14 view .LVU166
 585 01a2 9B07     		lsls	r3, r3, #30
 586 01a4 D1D5     		bpl	.L33
 422:Drivers/STM32F0xx_HAL_Driver/Src/stm32f0xx_hal_rcc.c ****           {
 587              		.loc 1 422 11 is_stmt 1 view .LVU167
 422:Drivers/STM32F0xx_HAL_Driver/Src/stm32f0xx_hal_rcc.c ****           {
 588              		.loc 1 422 15 is_stmt 0 view .LVU168
 589 01a6 FFF7FEFF 		bl	HAL_GetTick
 590              	.LVL34:
 422:Drivers/STM32F0xx_HAL_Driver/Src/stm32f0xx_hal_rcc.c ****           {
 591              		.loc 1 422 29 view .LVU169
 592 01aa 401B     		subs	r0, r0, r5
 422:Drivers/STM32F0xx_HAL_Driver/Src/stm32f0xx_hal_rcc.c ****           {
 593              		.loc 1 422 13 view .LVU170
 594 01ac 0228     		cmp	r0, #2
 595 01ae F6D9     		bls	.L40
 424:Drivers/STM32F0xx_HAL_Driver/Src/stm32f0xx_hal_rcc.c ****           }
 596              		.loc 1 424 20 view .LVU171
 597 01b0 0320     		movs	r0, #3
ARM GAS  /tmp/ccAPLIyc.s 			page 21


 598 01b2 5AE1     		b	.L20
 599              	.LVL35:
 600              	.L43:
 451:Drivers/STM32F0xx_HAL_Driver/Src/stm32f0xx_hal_rcc.c ****         }
 452:Drivers/STM32F0xx_HAL_Driver/Src/stm32f0xx_hal_rcc.c ****       }
 453:Drivers/STM32F0xx_HAL_Driver/Src/stm32f0xx_hal_rcc.c ****     }
 454:Drivers/STM32F0xx_HAL_Driver/Src/stm32f0xx_hal_rcc.c ****     else
 455:Drivers/STM32F0xx_HAL_Driver/Src/stm32f0xx_hal_rcc.c ****     {
 456:Drivers/STM32F0xx_HAL_Driver/Src/stm32f0xx_hal_rcc.c ****       /* Disable the Internal Low Speed oscillator (LSI). */
 457:Drivers/STM32F0xx_HAL_Driver/Src/stm32f0xx_hal_rcc.c ****       __HAL_RCC_LSI_DISABLE();
 601              		.loc 1 457 7 is_stmt 1 view .LVU172
 602 01b4 454A     		ldr	r2, .L117
 603 01b6 536A     		ldr	r3, [r2, #36]
 604 01b8 0121     		movs	r1, #1
 605 01ba 8B43     		bics	r3, r1
 606 01bc 5362     		str	r3, [r2, #36]
 458:Drivers/STM32F0xx_HAL_Driver/Src/stm32f0xx_hal_rcc.c ****       
 459:Drivers/STM32F0xx_HAL_Driver/Src/stm32f0xx_hal_rcc.c ****       /* Get Start Tick */
 460:Drivers/STM32F0xx_HAL_Driver/Src/stm32f0xx_hal_rcc.c ****       tickstart = HAL_GetTick();
 607              		.loc 1 460 7 view .LVU173
 608              		.loc 1 460 19 is_stmt 0 view .LVU174
 609 01be FFF7FEFF 		bl	HAL_GetTick
 610              	.LVL36:
 611 01c2 0500     		movs	r5, r0
 612              	.LVL37:
 461:Drivers/STM32F0xx_HAL_Driver/Src/stm32f0xx_hal_rcc.c ****       
 462:Drivers/STM32F0xx_HAL_Driver/Src/stm32f0xx_hal_rcc.c ****       /* Wait till LSI is disabled */  
 463:Drivers/STM32F0xx_HAL_Driver/Src/stm32f0xx_hal_rcc.c ****       while(__HAL_RCC_GET_FLAG(RCC_FLAG_LSIRDY) != RESET)
 613              		.loc 1 463 7 is_stmt 1 view .LVU175
 614              	.L46:
 615              		.loc 1 463 12 view .LVU176
 616              		.loc 1 463 13 is_stmt 0 view .LVU177
 617 01c4 414B     		ldr	r3, .L117
 618 01c6 5B6A     		ldr	r3, [r3, #36]
 619              		.loc 1 463 12 view .LVU178
 620 01c8 9B07     		lsls	r3, r3, #30
 621 01ca 06D5     		bpl	.L42
 464:Drivers/STM32F0xx_HAL_Driver/Src/stm32f0xx_hal_rcc.c ****       {
 465:Drivers/STM32F0xx_HAL_Driver/Src/stm32f0xx_hal_rcc.c ****         if((HAL_GetTick() - tickstart ) > LSI_TIMEOUT_VALUE)
 622              		.loc 1 465 9 is_stmt 1 view .LVU179
 623              		.loc 1 465 13 is_stmt 0 view .LVU180
 624 01cc FFF7FEFF 		bl	HAL_GetTick
 625              	.LVL38:
 626              		.loc 1 465 27 view .LVU181
 627 01d0 401B     		subs	r0, r0, r5
 628              		.loc 1 465 11 view .LVU182
 629 01d2 0228     		cmp	r0, #2
 630 01d4 F6D9     		bls	.L46
 466:Drivers/STM32F0xx_HAL_Driver/Src/stm32f0xx_hal_rcc.c ****         {
 467:Drivers/STM32F0xx_HAL_Driver/Src/stm32f0xx_hal_rcc.c ****           return HAL_TIMEOUT;
 631              		.loc 1 467 18 view .LVU183
 632 01d6 0320     		movs	r0, #3
 633 01d8 47E1     		b	.L20
 634              	.LVL39:
 635              	.L42:
 468:Drivers/STM32F0xx_HAL_Driver/Src/stm32f0xx_hal_rcc.c ****         }
 469:Drivers/STM32F0xx_HAL_Driver/Src/stm32f0xx_hal_rcc.c ****       }
ARM GAS  /tmp/ccAPLIyc.s 			page 22


 470:Drivers/STM32F0xx_HAL_Driver/Src/stm32f0xx_hal_rcc.c ****     }
 471:Drivers/STM32F0xx_HAL_Driver/Src/stm32f0xx_hal_rcc.c ****   }
 472:Drivers/STM32F0xx_HAL_Driver/Src/stm32f0xx_hal_rcc.c ****   /*------------------------------ LSE Configuration -------------------------*/ 
 473:Drivers/STM32F0xx_HAL_Driver/Src/stm32f0xx_hal_rcc.c ****   if(((RCC_OscInitStruct->OscillatorType) & RCC_OSCILLATORTYPE_LSE) == RCC_OSCILLATORTYPE_LSE)
 636              		.loc 1 473 3 is_stmt 1 view .LVU184
 637              		.loc 1 473 5 is_stmt 0 view .LVU185
 638 01da 2368     		ldr	r3, [r4]
 639 01dc 5B07     		lsls	r3, r3, #29
 640 01de 00D4     		bmi	.LCB603
 641 01e0 80E0     		b	.L48	@long jump
 642              	.LCB603:
 643              	.LBB2:
 474:Drivers/STM32F0xx_HAL_Driver/Src/stm32f0xx_hal_rcc.c ****   {
 475:Drivers/STM32F0xx_HAL_Driver/Src/stm32f0xx_hal_rcc.c ****     FlagStatus       pwrclkchanged = RESET;
 644              		.loc 1 475 5 is_stmt 1 view .LVU186
 645              	.LVL40:
 476:Drivers/STM32F0xx_HAL_Driver/Src/stm32f0xx_hal_rcc.c ****     
 477:Drivers/STM32F0xx_HAL_Driver/Src/stm32f0xx_hal_rcc.c ****     /* Check the parameters */
 478:Drivers/STM32F0xx_HAL_Driver/Src/stm32f0xx_hal_rcc.c ****     assert_param(IS_RCC_LSE(RCC_OscInitStruct->LSEState));
 646              		.loc 1 478 5 view .LVU187
 479:Drivers/STM32F0xx_HAL_Driver/Src/stm32f0xx_hal_rcc.c **** 
 480:Drivers/STM32F0xx_HAL_Driver/Src/stm32f0xx_hal_rcc.c ****     /* Update LSE configuration in Backup Domain control register    */
 481:Drivers/STM32F0xx_HAL_Driver/Src/stm32f0xx_hal_rcc.c ****     /* Requires to enable write access to Backup Domain of necessary */
 482:Drivers/STM32F0xx_HAL_Driver/Src/stm32f0xx_hal_rcc.c ****     if(__HAL_RCC_PWR_IS_CLK_DISABLED())
 647              		.loc 1 482 5 view .LVU188
 648              		.loc 1 482 8 is_stmt 0 view .LVU189
 649 01e2 3A4B     		ldr	r3, .L117
 650 01e4 DB69     		ldr	r3, [r3, #28]
 651              		.loc 1 482 7 view .LVU190
 652 01e6 DB00     		lsls	r3, r3, #3
 653 01e8 1DD4     		bmi	.L87
 483:Drivers/STM32F0xx_HAL_Driver/Src/stm32f0xx_hal_rcc.c ****     {
 484:Drivers/STM32F0xx_HAL_Driver/Src/stm32f0xx_hal_rcc.c ****       __HAL_RCC_PWR_CLK_ENABLE();
 654              		.loc 1 484 7 is_stmt 1 view .LVU191
 655              	.LBB3:
 656              		.loc 1 484 7 view .LVU192
 657              		.loc 1 484 7 view .LVU193
 658 01ea 384A     		ldr	r2, .L117
 659 01ec D169     		ldr	r1, [r2, #28]
 660 01ee 8020     		movs	r0, #128
 661 01f0 4005     		lsls	r0, r0, #21
 662 01f2 0143     		orrs	r1, r0
 663 01f4 D161     		str	r1, [r2, #28]
 664              		.loc 1 484 7 view .LVU194
 665 01f6 D369     		ldr	r3, [r2, #28]
 666 01f8 0340     		ands	r3, r0
 667 01fa 0193     		str	r3, [sp, #4]
 668              		.loc 1 484 7 view .LVU195
 669 01fc 019B     		ldr	r3, [sp, #4]
 670              	.LBE3:
 671              		.loc 1 484 7 view .LVU196
 485:Drivers/STM32F0xx_HAL_Driver/Src/stm32f0xx_hal_rcc.c ****       pwrclkchanged = SET;
 672              		.loc 1 485 7 view .LVU197
 673              	.LVL41:
 674              		.loc 1 485 21 is_stmt 0 view .LVU198
 675 01fe 0125     		movs	r5, #1
 676              	.LVL42:
ARM GAS  /tmp/ccAPLIyc.s 			page 23


 677              	.L49:
 486:Drivers/STM32F0xx_HAL_Driver/Src/stm32f0xx_hal_rcc.c ****     }
 487:Drivers/STM32F0xx_HAL_Driver/Src/stm32f0xx_hal_rcc.c ****     
 488:Drivers/STM32F0xx_HAL_Driver/Src/stm32f0xx_hal_rcc.c ****     if(HAL_IS_BIT_CLR(PWR->CR, PWR_CR_DBP))
 678              		.loc 1 488 5 is_stmt 1 view .LVU199
 679              		.loc 1 488 8 is_stmt 0 view .LVU200
 680 0200 354B     		ldr	r3, .L117+12
 681 0202 1B68     		ldr	r3, [r3]
 682              		.loc 1 488 7 view .LVU201
 683 0204 DB05     		lsls	r3, r3, #23
 684 0206 10D5     		bpl	.L107
 685              	.L50:
 489:Drivers/STM32F0xx_HAL_Driver/Src/stm32f0xx_hal_rcc.c ****     {
 490:Drivers/STM32F0xx_HAL_Driver/Src/stm32f0xx_hal_rcc.c ****       /* Enable write access to Backup domain */
 491:Drivers/STM32F0xx_HAL_Driver/Src/stm32f0xx_hal_rcc.c ****       SET_BIT(PWR->CR, PWR_CR_DBP);
 492:Drivers/STM32F0xx_HAL_Driver/Src/stm32f0xx_hal_rcc.c ****       
 493:Drivers/STM32F0xx_HAL_Driver/Src/stm32f0xx_hal_rcc.c ****       /* Wait for Backup domain Write protection disable */
 494:Drivers/STM32F0xx_HAL_Driver/Src/stm32f0xx_hal_rcc.c ****       tickstart = HAL_GetTick();
 495:Drivers/STM32F0xx_HAL_Driver/Src/stm32f0xx_hal_rcc.c **** 
 496:Drivers/STM32F0xx_HAL_Driver/Src/stm32f0xx_hal_rcc.c ****       while(HAL_IS_BIT_CLR(PWR->CR, PWR_CR_DBP))
 497:Drivers/STM32F0xx_HAL_Driver/Src/stm32f0xx_hal_rcc.c ****       {
 498:Drivers/STM32F0xx_HAL_Driver/Src/stm32f0xx_hal_rcc.c ****         if((HAL_GetTick() - tickstart) > RCC_DBP_TIMEOUT_VALUE)
 499:Drivers/STM32F0xx_HAL_Driver/Src/stm32f0xx_hal_rcc.c ****         {
 500:Drivers/STM32F0xx_HAL_Driver/Src/stm32f0xx_hal_rcc.c ****           return HAL_TIMEOUT;
 501:Drivers/STM32F0xx_HAL_Driver/Src/stm32f0xx_hal_rcc.c ****         }
 502:Drivers/STM32F0xx_HAL_Driver/Src/stm32f0xx_hal_rcc.c ****       }
 503:Drivers/STM32F0xx_HAL_Driver/Src/stm32f0xx_hal_rcc.c ****     }
 504:Drivers/STM32F0xx_HAL_Driver/Src/stm32f0xx_hal_rcc.c **** 
 505:Drivers/STM32F0xx_HAL_Driver/Src/stm32f0xx_hal_rcc.c ****     /* Set the new LSE configuration -----------------------------------------*/
 506:Drivers/STM32F0xx_HAL_Driver/Src/stm32f0xx_hal_rcc.c ****     __HAL_RCC_LSE_CONFIG(RCC_OscInitStruct->LSEState);
 686              		.loc 1 506 5 is_stmt 1 view .LVU202
 687              		.loc 1 506 5 view .LVU203
 688 0208 A368     		ldr	r3, [r4, #8]
 689 020a 012B     		cmp	r3, #1
 690 020c 21D0     		beq	.L108
 691              		.loc 1 506 5 discriminator 2 view .LVU204
 692 020e 002B     		cmp	r3, #0
 693 0210 36D1     		bne	.L55
 694              		.loc 1 506 5 discriminator 4 view .LVU205
 695 0212 2E4B     		ldr	r3, .L117
 696 0214 1A6A     		ldr	r2, [r3, #32]
 697 0216 0121     		movs	r1, #1
 698 0218 8A43     		bics	r2, r1
 699 021a 1A62     		str	r2, [r3, #32]
 700              		.loc 1 506 5 discriminator 4 view .LVU206
 701 021c 1A6A     		ldr	r2, [r3, #32]
 702 021e 0331     		adds	r1, r1, #3
 703 0220 8A43     		bics	r2, r1
 704 0222 1A62     		str	r2, [r3, #32]
 705 0224 1AE0     		b	.L54
 706              	.LVL43:
 707              	.L87:
 475:Drivers/STM32F0xx_HAL_Driver/Src/stm32f0xx_hal_rcc.c ****     
 708              		.loc 1 475 22 is_stmt 0 view .LVU207
 709 0226 0025     		movs	r5, #0
 710 0228 EAE7     		b	.L49
 711              	.LVL44:
ARM GAS  /tmp/ccAPLIyc.s 			page 24


 712              	.L107:
 491:Drivers/STM32F0xx_HAL_Driver/Src/stm32f0xx_hal_rcc.c ****       
 713              		.loc 1 491 7 is_stmt 1 view .LVU208
 714 022a 2B4A     		ldr	r2, .L117+12
 715 022c 1168     		ldr	r1, [r2]
 716 022e 8023     		movs	r3, #128
 717 0230 5B00     		lsls	r3, r3, #1
 718 0232 0B43     		orrs	r3, r1
 719 0234 1360     		str	r3, [r2]
 494:Drivers/STM32F0xx_HAL_Driver/Src/stm32f0xx_hal_rcc.c **** 
 720              		.loc 1 494 7 view .LVU209
 494:Drivers/STM32F0xx_HAL_Driver/Src/stm32f0xx_hal_rcc.c **** 
 721              		.loc 1 494 19 is_stmt 0 view .LVU210
 722 0236 FFF7FEFF 		bl	HAL_GetTick
 723              	.LVL45:
 724 023a 0600     		movs	r6, r0
 725              	.LVL46:
 496:Drivers/STM32F0xx_HAL_Driver/Src/stm32f0xx_hal_rcc.c ****       {
 726              		.loc 1 496 7 is_stmt 1 view .LVU211
 727              	.L51:
 496:Drivers/STM32F0xx_HAL_Driver/Src/stm32f0xx_hal_rcc.c ****       {
 728              		.loc 1 496 12 view .LVU212
 496:Drivers/STM32F0xx_HAL_Driver/Src/stm32f0xx_hal_rcc.c ****       {
 729              		.loc 1 496 13 is_stmt 0 view .LVU213
 730 023c 264B     		ldr	r3, .L117+12
 731 023e 1B68     		ldr	r3, [r3]
 496:Drivers/STM32F0xx_HAL_Driver/Src/stm32f0xx_hal_rcc.c ****       {
 732              		.loc 1 496 12 view .LVU214
 733 0240 DB05     		lsls	r3, r3, #23
 734 0242 E1D4     		bmi	.L50
 498:Drivers/STM32F0xx_HAL_Driver/Src/stm32f0xx_hal_rcc.c ****         {
 735              		.loc 1 498 9 is_stmt 1 view .LVU215
 498:Drivers/STM32F0xx_HAL_Driver/Src/stm32f0xx_hal_rcc.c ****         {
 736              		.loc 1 498 13 is_stmt 0 view .LVU216
 737 0244 FFF7FEFF 		bl	HAL_GetTick
 738              	.LVL47:
 498:Drivers/STM32F0xx_HAL_Driver/Src/stm32f0xx_hal_rcc.c ****         {
 739              		.loc 1 498 27 view .LVU217
 740 0248 801B     		subs	r0, r0, r6
 498:Drivers/STM32F0xx_HAL_Driver/Src/stm32f0xx_hal_rcc.c ****         {
 741              		.loc 1 498 11 view .LVU218
 742 024a 6428     		cmp	r0, #100
 743 024c F6D9     		bls	.L51
 500:Drivers/STM32F0xx_HAL_Driver/Src/stm32f0xx_hal_rcc.c ****         }
 744              		.loc 1 500 18 view .LVU219
 745 024e 0320     		movs	r0, #3
 746 0250 0BE1     		b	.L20
 747              	.LVL48:
 748              	.L108:
 749              		.loc 1 506 5 is_stmt 1 discriminator 1 view .LVU220
 750 0252 1E4A     		ldr	r2, .L117
 751 0254 136A     		ldr	r3, [r2, #32]
 752 0256 0121     		movs	r1, #1
 753 0258 0B43     		orrs	r3, r1
 754 025a 1362     		str	r3, [r2, #32]
 755              	.L54:
 756              		.loc 1 506 5 discriminator 10 view .LVU221
ARM GAS  /tmp/ccAPLIyc.s 			page 25


 507:Drivers/STM32F0xx_HAL_Driver/Src/stm32f0xx_hal_rcc.c ****     /* Check the LSE State */
 508:Drivers/STM32F0xx_HAL_Driver/Src/stm32f0xx_hal_rcc.c ****     if(RCC_OscInitStruct->LSEState != RCC_LSE_OFF)
 757              		.loc 1 508 5 discriminator 10 view .LVU222
 758              		.loc 1 508 7 is_stmt 0 discriminator 10 view .LVU223
 759 025c A368     		ldr	r3, [r4, #8]
 760 025e 002B     		cmp	r3, #0
 761 0260 24D0     		beq	.L57
 509:Drivers/STM32F0xx_HAL_Driver/Src/stm32f0xx_hal_rcc.c ****     {
 510:Drivers/STM32F0xx_HAL_Driver/Src/stm32f0xx_hal_rcc.c ****       /* Get Start Tick */
 511:Drivers/STM32F0xx_HAL_Driver/Src/stm32f0xx_hal_rcc.c ****       tickstart = HAL_GetTick();
 762              		.loc 1 511 7 is_stmt 1 view .LVU224
 763              		.loc 1 511 19 is_stmt 0 view .LVU225
 764 0262 FFF7FEFF 		bl	HAL_GetTick
 765              	.LVL49:
 766 0266 0600     		movs	r6, r0
 767              	.LVL50:
 512:Drivers/STM32F0xx_HAL_Driver/Src/stm32f0xx_hal_rcc.c ****       
 513:Drivers/STM32F0xx_HAL_Driver/Src/stm32f0xx_hal_rcc.c ****       /* Wait till LSE is ready */  
 514:Drivers/STM32F0xx_HAL_Driver/Src/stm32f0xx_hal_rcc.c ****       while(__HAL_RCC_GET_FLAG(RCC_FLAG_LSERDY) == RESET)
 768              		.loc 1 514 7 is_stmt 1 view .LVU226
 769              	.L58:
 770              		.loc 1 514 12 view .LVU227
 771              		.loc 1 514 13 is_stmt 0 view .LVU228
 772 0268 184B     		ldr	r3, .L117
 773 026a 1B6A     		ldr	r3, [r3, #32]
 774              		.loc 1 514 12 view .LVU229
 775 026c 9B07     		lsls	r3, r3, #30
 776 026e 37D4     		bmi	.L60
 515:Drivers/STM32F0xx_HAL_Driver/Src/stm32f0xx_hal_rcc.c ****       {
 516:Drivers/STM32F0xx_HAL_Driver/Src/stm32f0xx_hal_rcc.c ****         if((HAL_GetTick() - tickstart ) > RCC_LSE_TIMEOUT_VALUE)
 777              		.loc 1 516 9 is_stmt 1 view .LVU230
 778              		.loc 1 516 13 is_stmt 0 view .LVU231
 779 0270 FFF7FEFF 		bl	HAL_GetTick
 780              	.LVL51:
 781              		.loc 1 516 27 view .LVU232
 782 0274 801B     		subs	r0, r0, r6
 783              		.loc 1 516 11 view .LVU233
 784 0276 194B     		ldr	r3, .L117+16
 785 0278 9842     		cmp	r0, r3
 786 027a F5D9     		bls	.L58
 517:Drivers/STM32F0xx_HAL_Driver/Src/stm32f0xx_hal_rcc.c ****         {
 518:Drivers/STM32F0xx_HAL_Driver/Src/stm32f0xx_hal_rcc.c ****           return HAL_TIMEOUT;
 787              		.loc 1 518 18 view .LVU234
 788 027c 0320     		movs	r0, #3
 789 027e F4E0     		b	.L20
 790              	.LVL52:
 791              	.L55:
 506:Drivers/STM32F0xx_HAL_Driver/Src/stm32f0xx_hal_rcc.c ****     /* Check the LSE State */
 792              		.loc 1 506 5 is_stmt 1 discriminator 5 view .LVU235
 793 0280 052B     		cmp	r3, #5
 794 0282 09D0     		beq	.L109
 506:Drivers/STM32F0xx_HAL_Driver/Src/stm32f0xx_hal_rcc.c ****     /* Check the LSE State */
 795              		.loc 1 506 5 discriminator 8 view .LVU236
 796 0284 114B     		ldr	r3, .L117
 797 0286 1A6A     		ldr	r2, [r3, #32]
 798 0288 0121     		movs	r1, #1
 799 028a 8A43     		bics	r2, r1
ARM GAS  /tmp/ccAPLIyc.s 			page 26


 800 028c 1A62     		str	r2, [r3, #32]
 506:Drivers/STM32F0xx_HAL_Driver/Src/stm32f0xx_hal_rcc.c ****     /* Check the LSE State */
 801              		.loc 1 506 5 discriminator 8 view .LVU237
 802 028e 1A6A     		ldr	r2, [r3, #32]
 803 0290 0331     		adds	r1, r1, #3
 804 0292 8A43     		bics	r2, r1
 805 0294 1A62     		str	r2, [r3, #32]
 806 0296 E1E7     		b	.L54
 807              	.L109:
 506:Drivers/STM32F0xx_HAL_Driver/Src/stm32f0xx_hal_rcc.c ****     /* Check the LSE State */
 808              		.loc 1 506 5 discriminator 7 view .LVU238
 809 0298 0C4B     		ldr	r3, .L117
 810 029a 1A6A     		ldr	r2, [r3, #32]
 811 029c 0421     		movs	r1, #4
 812 029e 0A43     		orrs	r2, r1
 813 02a0 1A62     		str	r2, [r3, #32]
 506:Drivers/STM32F0xx_HAL_Driver/Src/stm32f0xx_hal_rcc.c ****     /* Check the LSE State */
 814              		.loc 1 506 5 discriminator 7 view .LVU239
 815 02a2 1A6A     		ldr	r2, [r3, #32]
 816 02a4 0339     		subs	r1, r1, #3
 817 02a6 0A43     		orrs	r2, r1
 818 02a8 1A62     		str	r2, [r3, #32]
 819 02aa D7E7     		b	.L54
 820              	.L57:
 519:Drivers/STM32F0xx_HAL_Driver/Src/stm32f0xx_hal_rcc.c ****         }
 520:Drivers/STM32F0xx_HAL_Driver/Src/stm32f0xx_hal_rcc.c ****       }
 521:Drivers/STM32F0xx_HAL_Driver/Src/stm32f0xx_hal_rcc.c ****     }
 522:Drivers/STM32F0xx_HAL_Driver/Src/stm32f0xx_hal_rcc.c ****     else
 523:Drivers/STM32F0xx_HAL_Driver/Src/stm32f0xx_hal_rcc.c ****     {
 524:Drivers/STM32F0xx_HAL_Driver/Src/stm32f0xx_hal_rcc.c ****       /* Get Start Tick */
 525:Drivers/STM32F0xx_HAL_Driver/Src/stm32f0xx_hal_rcc.c ****       tickstart = HAL_GetTick();
 821              		.loc 1 525 7 view .LVU240
 822              		.loc 1 525 19 is_stmt 0 view .LVU241
 823 02ac FFF7FEFF 		bl	HAL_GetTick
 824              	.LVL53:
 825 02b0 0600     		movs	r6, r0
 826              	.LVL54:
 526:Drivers/STM32F0xx_HAL_Driver/Src/stm32f0xx_hal_rcc.c ****       
 527:Drivers/STM32F0xx_HAL_Driver/Src/stm32f0xx_hal_rcc.c ****       /* Wait till LSE is disabled */  
 528:Drivers/STM32F0xx_HAL_Driver/Src/stm32f0xx_hal_rcc.c ****       while(__HAL_RCC_GET_FLAG(RCC_FLAG_LSERDY) != RESET)
 827              		.loc 1 528 7 is_stmt 1 view .LVU242
 828              	.L61:
 829              		.loc 1 528 12 view .LVU243
 830              		.loc 1 528 13 is_stmt 0 view .LVU244
 831 02b2 064B     		ldr	r3, .L117
 832 02b4 1B6A     		ldr	r3, [r3, #32]
 833              		.loc 1 528 12 view .LVU245
 834 02b6 9B07     		lsls	r3, r3, #30
 835 02b8 12D5     		bpl	.L60
 529:Drivers/STM32F0xx_HAL_Driver/Src/stm32f0xx_hal_rcc.c ****       {
 530:Drivers/STM32F0xx_HAL_Driver/Src/stm32f0xx_hal_rcc.c ****         if((HAL_GetTick() - tickstart ) > RCC_LSE_TIMEOUT_VALUE)
 836              		.loc 1 530 9 is_stmt 1 view .LVU246
 837              		.loc 1 530 13 is_stmt 0 view .LVU247
 838 02ba FFF7FEFF 		bl	HAL_GetTick
 839              	.LVL55:
 840              		.loc 1 530 27 view .LVU248
 841 02be 801B     		subs	r0, r0, r6
ARM GAS  /tmp/ccAPLIyc.s 			page 27


 842              		.loc 1 530 11 view .LVU249
 843 02c0 064B     		ldr	r3, .L117+16
 844 02c2 9842     		cmp	r0, r3
 845 02c4 F5D9     		bls	.L61
 531:Drivers/STM32F0xx_HAL_Driver/Src/stm32f0xx_hal_rcc.c ****         {
 532:Drivers/STM32F0xx_HAL_Driver/Src/stm32f0xx_hal_rcc.c ****           return HAL_TIMEOUT;
 846              		.loc 1 532 18 view .LVU250
 847 02c6 0320     		movs	r0, #3
 848 02c8 CFE0     		b	.L20
 849              	.L118:
 850 02ca C046     		.align	2
 851              	.L117:
 852 02cc 00100240 		.word	1073876992
 853 02d0 FFFFFEFF 		.word	-65537
 854 02d4 FFFFFBFF 		.word	-262145
 855 02d8 00700040 		.word	1073770496
 856 02dc 88130000 		.word	5000
 857              	.L60:
 533:Drivers/STM32F0xx_HAL_Driver/Src/stm32f0xx_hal_rcc.c ****         }
 534:Drivers/STM32F0xx_HAL_Driver/Src/stm32f0xx_hal_rcc.c ****       }
 535:Drivers/STM32F0xx_HAL_Driver/Src/stm32f0xx_hal_rcc.c ****     }
 536:Drivers/STM32F0xx_HAL_Driver/Src/stm32f0xx_hal_rcc.c **** 
 537:Drivers/STM32F0xx_HAL_Driver/Src/stm32f0xx_hal_rcc.c ****     /* Require to disable power clock if necessary */
 538:Drivers/STM32F0xx_HAL_Driver/Src/stm32f0xx_hal_rcc.c ****     if(pwrclkchanged == SET)
 858              		.loc 1 538 5 is_stmt 1 view .LVU251
 859              		.loc 1 538 7 is_stmt 0 view .LVU252
 860 02e0 012D     		cmp	r5, #1
 861 02e2 33D0     		beq	.L110
 862              	.LVL56:
 863              	.L48:
 864              		.loc 1 538 7 view .LVU253
 865              	.LBE2:
 539:Drivers/STM32F0xx_HAL_Driver/Src/stm32f0xx_hal_rcc.c ****     {
 540:Drivers/STM32F0xx_HAL_Driver/Src/stm32f0xx_hal_rcc.c ****       __HAL_RCC_PWR_CLK_DISABLE();
 541:Drivers/STM32F0xx_HAL_Driver/Src/stm32f0xx_hal_rcc.c ****     }
 542:Drivers/STM32F0xx_HAL_Driver/Src/stm32f0xx_hal_rcc.c ****   }
 543:Drivers/STM32F0xx_HAL_Driver/Src/stm32f0xx_hal_rcc.c **** 
 544:Drivers/STM32F0xx_HAL_Driver/Src/stm32f0xx_hal_rcc.c ****   /*----------------------------- HSI14 Configuration --------------------------*/
 545:Drivers/STM32F0xx_HAL_Driver/Src/stm32f0xx_hal_rcc.c ****   if(((RCC_OscInitStruct->OscillatorType) & RCC_OSCILLATORTYPE_HSI14) == RCC_OSCILLATORTYPE_HSI14)
 866              		.loc 1 545 3 is_stmt 1 view .LVU254
 867              		.loc 1 545 5 is_stmt 0 view .LVU255
 868 02e4 2368     		ldr	r3, [r4]
 869 02e6 DB06     		lsls	r3, r3, #27
 870 02e8 10D5     		bpl	.L63
 546:Drivers/STM32F0xx_HAL_Driver/Src/stm32f0xx_hal_rcc.c ****   {
 547:Drivers/STM32F0xx_HAL_Driver/Src/stm32f0xx_hal_rcc.c ****     /* Check the parameters */
 548:Drivers/STM32F0xx_HAL_Driver/Src/stm32f0xx_hal_rcc.c ****     assert_param(IS_RCC_HSI14(RCC_OscInitStruct->HSI14State));
 871              		.loc 1 548 5 is_stmt 1 view .LVU256
 549:Drivers/STM32F0xx_HAL_Driver/Src/stm32f0xx_hal_rcc.c ****     assert_param(IS_RCC_CALIBRATION_VALUE(RCC_OscInitStruct->HSI14CalibrationValue));
 872              		.loc 1 549 5 view .LVU257
 550:Drivers/STM32F0xx_HAL_Driver/Src/stm32f0xx_hal_rcc.c **** 
 551:Drivers/STM32F0xx_HAL_Driver/Src/stm32f0xx_hal_rcc.c ****     /* Check the HSI14 State */
 552:Drivers/STM32F0xx_HAL_Driver/Src/stm32f0xx_hal_rcc.c ****     if(RCC_OscInitStruct->HSI14State == RCC_HSI14_ON)
 873              		.loc 1 552 5 view .LVU258
 874              		.loc 1 552 25 is_stmt 0 view .LVU259
 875 02ea 6369     		ldr	r3, [r4, #20]
 876              		.loc 1 552 7 view .LVU260
ARM GAS  /tmp/ccAPLIyc.s 			page 28


 877 02ec 012B     		cmp	r3, #1
 878 02ee 33D0     		beq	.L111
 553:Drivers/STM32F0xx_HAL_Driver/Src/stm32f0xx_hal_rcc.c ****     {
 554:Drivers/STM32F0xx_HAL_Driver/Src/stm32f0xx_hal_rcc.c ****       /* Disable ADC control of the Internal High Speed oscillator HSI14 */
 555:Drivers/STM32F0xx_HAL_Driver/Src/stm32f0xx_hal_rcc.c ****       __HAL_RCC_HSI14ADC_DISABLE();
 556:Drivers/STM32F0xx_HAL_Driver/Src/stm32f0xx_hal_rcc.c **** 
 557:Drivers/STM32F0xx_HAL_Driver/Src/stm32f0xx_hal_rcc.c ****       /* Enable the Internal High Speed oscillator (HSI). */
 558:Drivers/STM32F0xx_HAL_Driver/Src/stm32f0xx_hal_rcc.c ****       __HAL_RCC_HSI14_ENABLE();
 559:Drivers/STM32F0xx_HAL_Driver/Src/stm32f0xx_hal_rcc.c **** 
 560:Drivers/STM32F0xx_HAL_Driver/Src/stm32f0xx_hal_rcc.c ****       /* Get Start Tick */
 561:Drivers/STM32F0xx_HAL_Driver/Src/stm32f0xx_hal_rcc.c ****       tickstart = HAL_GetTick();
 562:Drivers/STM32F0xx_HAL_Driver/Src/stm32f0xx_hal_rcc.c ****       
 563:Drivers/STM32F0xx_HAL_Driver/Src/stm32f0xx_hal_rcc.c ****       /* Wait till HSI is ready */  
 564:Drivers/STM32F0xx_HAL_Driver/Src/stm32f0xx_hal_rcc.c ****       while(__HAL_RCC_GET_FLAG(RCC_FLAG_HSI14RDY) == RESET)
 565:Drivers/STM32F0xx_HAL_Driver/Src/stm32f0xx_hal_rcc.c ****       {
 566:Drivers/STM32F0xx_HAL_Driver/Src/stm32f0xx_hal_rcc.c ****         if((HAL_GetTick() - tickstart) > HSI14_TIMEOUT_VALUE)
 567:Drivers/STM32F0xx_HAL_Driver/Src/stm32f0xx_hal_rcc.c ****         {
 568:Drivers/STM32F0xx_HAL_Driver/Src/stm32f0xx_hal_rcc.c ****           return HAL_TIMEOUT;
 569:Drivers/STM32F0xx_HAL_Driver/Src/stm32f0xx_hal_rcc.c ****         }      
 570:Drivers/STM32F0xx_HAL_Driver/Src/stm32f0xx_hal_rcc.c ****       } 
 571:Drivers/STM32F0xx_HAL_Driver/Src/stm32f0xx_hal_rcc.c **** 
 572:Drivers/STM32F0xx_HAL_Driver/Src/stm32f0xx_hal_rcc.c ****       /* Adjusts the Internal High Speed oscillator 14Mhz (HSI14) calibration value. */
 573:Drivers/STM32F0xx_HAL_Driver/Src/stm32f0xx_hal_rcc.c ****       __HAL_RCC_HSI14_CALIBRATIONVALUE_ADJUST(RCC_OscInitStruct->HSI14CalibrationValue);
 574:Drivers/STM32F0xx_HAL_Driver/Src/stm32f0xx_hal_rcc.c ****     }
 575:Drivers/STM32F0xx_HAL_Driver/Src/stm32f0xx_hal_rcc.c ****     else if(RCC_OscInitStruct->HSI14State == RCC_HSI14_ADC_CONTROL)
 879              		.loc 1 575 10 is_stmt 1 view .LVU261
 880              		.loc 1 575 12 is_stmt 0 view .LVU262
 881 02f0 0533     		adds	r3, r3, #5
 882 02f2 51D1     		bne	.L67
 576:Drivers/STM32F0xx_HAL_Driver/Src/stm32f0xx_hal_rcc.c ****     {
 577:Drivers/STM32F0xx_HAL_Driver/Src/stm32f0xx_hal_rcc.c ****       /* Enable ADC control of the Internal High Speed oscillator HSI14 */
 578:Drivers/STM32F0xx_HAL_Driver/Src/stm32f0xx_hal_rcc.c ****       __HAL_RCC_HSI14ADC_ENABLE();
 883              		.loc 1 578 7 is_stmt 1 view .LVU263
 884 02f4 654A     		ldr	r2, .L119
 885 02f6 536B     		ldr	r3, [r2, #52]
 886 02f8 0421     		movs	r1, #4
 887 02fa 8B43     		bics	r3, r1
 888 02fc 5363     		str	r3, [r2, #52]
 579:Drivers/STM32F0xx_HAL_Driver/Src/stm32f0xx_hal_rcc.c **** 
 580:Drivers/STM32F0xx_HAL_Driver/Src/stm32f0xx_hal_rcc.c ****       /* Adjusts the Internal High Speed oscillator 14Mhz (HSI14) calibration value. */
 581:Drivers/STM32F0xx_HAL_Driver/Src/stm32f0xx_hal_rcc.c ****       __HAL_RCC_HSI14_CALIBRATIONVALUE_ADJUST(RCC_OscInitStruct->HSI14CalibrationValue);
 889              		.loc 1 581 7 view .LVU264
 890 02fe 536B     		ldr	r3, [r2, #52]
 891 0300 F431     		adds	r1, r1, #244
 892 0302 8B43     		bics	r3, r1
 893 0304 A169     		ldr	r1, [r4, #24]
 894 0306 C900     		lsls	r1, r1, #3
 895 0308 0B43     		orrs	r3, r1
 896 030a 5363     		str	r3, [r2, #52]
 897              	.L63:
 582:Drivers/STM32F0xx_HAL_Driver/Src/stm32f0xx_hal_rcc.c ****     }
 583:Drivers/STM32F0xx_HAL_Driver/Src/stm32f0xx_hal_rcc.c ****     else
 584:Drivers/STM32F0xx_HAL_Driver/Src/stm32f0xx_hal_rcc.c ****     {
 585:Drivers/STM32F0xx_HAL_Driver/Src/stm32f0xx_hal_rcc.c ****       /* Disable ADC control of the Internal High Speed oscillator HSI14 */
 586:Drivers/STM32F0xx_HAL_Driver/Src/stm32f0xx_hal_rcc.c ****       __HAL_RCC_HSI14ADC_DISABLE();
 587:Drivers/STM32F0xx_HAL_Driver/Src/stm32f0xx_hal_rcc.c **** 
 588:Drivers/STM32F0xx_HAL_Driver/Src/stm32f0xx_hal_rcc.c ****       /* Disable the Internal High Speed oscillator (HSI). */
ARM GAS  /tmp/ccAPLIyc.s 			page 29


 589:Drivers/STM32F0xx_HAL_Driver/Src/stm32f0xx_hal_rcc.c ****       __HAL_RCC_HSI14_DISABLE();
 590:Drivers/STM32F0xx_HAL_Driver/Src/stm32f0xx_hal_rcc.c **** 
 591:Drivers/STM32F0xx_HAL_Driver/Src/stm32f0xx_hal_rcc.c ****       /* Get Start Tick */
 592:Drivers/STM32F0xx_HAL_Driver/Src/stm32f0xx_hal_rcc.c ****       tickstart = HAL_GetTick();
 593:Drivers/STM32F0xx_HAL_Driver/Src/stm32f0xx_hal_rcc.c ****       
 594:Drivers/STM32F0xx_HAL_Driver/Src/stm32f0xx_hal_rcc.c ****       /* Wait till HSI is ready */  
 595:Drivers/STM32F0xx_HAL_Driver/Src/stm32f0xx_hal_rcc.c ****       while(__HAL_RCC_GET_FLAG(RCC_FLAG_HSI14RDY) != RESET)
 596:Drivers/STM32F0xx_HAL_Driver/Src/stm32f0xx_hal_rcc.c ****       {
 597:Drivers/STM32F0xx_HAL_Driver/Src/stm32f0xx_hal_rcc.c ****         if((HAL_GetTick() - tickstart) > HSI14_TIMEOUT_VALUE)
 598:Drivers/STM32F0xx_HAL_Driver/Src/stm32f0xx_hal_rcc.c ****         {
 599:Drivers/STM32F0xx_HAL_Driver/Src/stm32f0xx_hal_rcc.c ****           return HAL_TIMEOUT;
 600:Drivers/STM32F0xx_HAL_Driver/Src/stm32f0xx_hal_rcc.c ****         }
 601:Drivers/STM32F0xx_HAL_Driver/Src/stm32f0xx_hal_rcc.c ****       }
 602:Drivers/STM32F0xx_HAL_Driver/Src/stm32f0xx_hal_rcc.c ****     }
 603:Drivers/STM32F0xx_HAL_Driver/Src/stm32f0xx_hal_rcc.c ****   }
 604:Drivers/STM32F0xx_HAL_Driver/Src/stm32f0xx_hal_rcc.c **** 
 605:Drivers/STM32F0xx_HAL_Driver/Src/stm32f0xx_hal_rcc.c **** #if defined(RCC_HSI48_SUPPORT)
 606:Drivers/STM32F0xx_HAL_Driver/Src/stm32f0xx_hal_rcc.c ****   /*----------------------------- HSI48 Configuration --------------------------*/
 607:Drivers/STM32F0xx_HAL_Driver/Src/stm32f0xx_hal_rcc.c ****   if(((RCC_OscInitStruct->OscillatorType) & RCC_OSCILLATORTYPE_HSI48) == RCC_OSCILLATORTYPE_HSI48)
 608:Drivers/STM32F0xx_HAL_Driver/Src/stm32f0xx_hal_rcc.c ****   {
 609:Drivers/STM32F0xx_HAL_Driver/Src/stm32f0xx_hal_rcc.c ****     /* Check the parameters */
 610:Drivers/STM32F0xx_HAL_Driver/Src/stm32f0xx_hal_rcc.c ****     assert_param(IS_RCC_HSI48(RCC_OscInitStruct->HSI48State));
 611:Drivers/STM32F0xx_HAL_Driver/Src/stm32f0xx_hal_rcc.c **** 
 612:Drivers/STM32F0xx_HAL_Driver/Src/stm32f0xx_hal_rcc.c ****     /* When the HSI48 is used as system clock it is not allowed to be disabled */
 613:Drivers/STM32F0xx_HAL_Driver/Src/stm32f0xx_hal_rcc.c ****     if((__HAL_RCC_GET_SYSCLK_SOURCE() == RCC_SYSCLKSOURCE_STATUS_HSI48) ||
 614:Drivers/STM32F0xx_HAL_Driver/Src/stm32f0xx_hal_rcc.c ****        ((__HAL_RCC_GET_SYSCLK_SOURCE() == RCC_SYSCLKSOURCE_STATUS_PLLCLK) && (__HAL_RCC_GET_PLL_OSC
 615:Drivers/STM32F0xx_HAL_Driver/Src/stm32f0xx_hal_rcc.c ****     {
 616:Drivers/STM32F0xx_HAL_Driver/Src/stm32f0xx_hal_rcc.c ****       if((__HAL_RCC_GET_FLAG(RCC_FLAG_HSI48RDY) != RESET) && (RCC_OscInitStruct->HSI48State != RCC_
 617:Drivers/STM32F0xx_HAL_Driver/Src/stm32f0xx_hal_rcc.c ****       {
 618:Drivers/STM32F0xx_HAL_Driver/Src/stm32f0xx_hal_rcc.c ****         return HAL_ERROR;
 619:Drivers/STM32F0xx_HAL_Driver/Src/stm32f0xx_hal_rcc.c ****       }
 620:Drivers/STM32F0xx_HAL_Driver/Src/stm32f0xx_hal_rcc.c ****     }
 621:Drivers/STM32F0xx_HAL_Driver/Src/stm32f0xx_hal_rcc.c ****     else
 622:Drivers/STM32F0xx_HAL_Driver/Src/stm32f0xx_hal_rcc.c ****     {
 623:Drivers/STM32F0xx_HAL_Driver/Src/stm32f0xx_hal_rcc.c ****       /* Check the HSI48 State */
 624:Drivers/STM32F0xx_HAL_Driver/Src/stm32f0xx_hal_rcc.c ****       if(RCC_OscInitStruct->HSI48State != RCC_HSI48_OFF)
 625:Drivers/STM32F0xx_HAL_Driver/Src/stm32f0xx_hal_rcc.c ****       {
 626:Drivers/STM32F0xx_HAL_Driver/Src/stm32f0xx_hal_rcc.c ****         /* Enable the Internal High Speed oscillator (HSI48). */
 627:Drivers/STM32F0xx_HAL_Driver/Src/stm32f0xx_hal_rcc.c ****         __HAL_RCC_HSI48_ENABLE();
 628:Drivers/STM32F0xx_HAL_Driver/Src/stm32f0xx_hal_rcc.c **** 
 629:Drivers/STM32F0xx_HAL_Driver/Src/stm32f0xx_hal_rcc.c ****         /* Get Start Tick */
 630:Drivers/STM32F0xx_HAL_Driver/Src/stm32f0xx_hal_rcc.c ****         tickstart = HAL_GetTick();
 631:Drivers/STM32F0xx_HAL_Driver/Src/stm32f0xx_hal_rcc.c ****       
 632:Drivers/STM32F0xx_HAL_Driver/Src/stm32f0xx_hal_rcc.c ****         /* Wait till HSI48 is ready */  
 633:Drivers/STM32F0xx_HAL_Driver/Src/stm32f0xx_hal_rcc.c ****         while(__HAL_RCC_GET_FLAG(RCC_FLAG_HSI48RDY) == RESET)
 634:Drivers/STM32F0xx_HAL_Driver/Src/stm32f0xx_hal_rcc.c ****         {
 635:Drivers/STM32F0xx_HAL_Driver/Src/stm32f0xx_hal_rcc.c ****           if((HAL_GetTick() - tickstart) > HSI48_TIMEOUT_VALUE)
 636:Drivers/STM32F0xx_HAL_Driver/Src/stm32f0xx_hal_rcc.c ****           {
 637:Drivers/STM32F0xx_HAL_Driver/Src/stm32f0xx_hal_rcc.c ****             return HAL_TIMEOUT;
 638:Drivers/STM32F0xx_HAL_Driver/Src/stm32f0xx_hal_rcc.c ****           }
 639:Drivers/STM32F0xx_HAL_Driver/Src/stm32f0xx_hal_rcc.c ****         } 
 640:Drivers/STM32F0xx_HAL_Driver/Src/stm32f0xx_hal_rcc.c ****       }
 641:Drivers/STM32F0xx_HAL_Driver/Src/stm32f0xx_hal_rcc.c ****       else
 642:Drivers/STM32F0xx_HAL_Driver/Src/stm32f0xx_hal_rcc.c ****       {
 643:Drivers/STM32F0xx_HAL_Driver/Src/stm32f0xx_hal_rcc.c ****         /* Disable the Internal High Speed oscillator (HSI48). */
 644:Drivers/STM32F0xx_HAL_Driver/Src/stm32f0xx_hal_rcc.c ****         __HAL_RCC_HSI48_DISABLE();
 645:Drivers/STM32F0xx_HAL_Driver/Src/stm32f0xx_hal_rcc.c **** 
ARM GAS  /tmp/ccAPLIyc.s 			page 30


 646:Drivers/STM32F0xx_HAL_Driver/Src/stm32f0xx_hal_rcc.c ****         /* Get Start Tick */
 647:Drivers/STM32F0xx_HAL_Driver/Src/stm32f0xx_hal_rcc.c ****         tickstart = HAL_GetTick();
 648:Drivers/STM32F0xx_HAL_Driver/Src/stm32f0xx_hal_rcc.c ****       
 649:Drivers/STM32F0xx_HAL_Driver/Src/stm32f0xx_hal_rcc.c ****         /* Wait till HSI48 is ready */  
 650:Drivers/STM32F0xx_HAL_Driver/Src/stm32f0xx_hal_rcc.c ****         while(__HAL_RCC_GET_FLAG(RCC_FLAG_HSI48RDY) != RESET)
 651:Drivers/STM32F0xx_HAL_Driver/Src/stm32f0xx_hal_rcc.c ****         {
 652:Drivers/STM32F0xx_HAL_Driver/Src/stm32f0xx_hal_rcc.c ****           if((HAL_GetTick() - tickstart) > HSI48_TIMEOUT_VALUE)
 653:Drivers/STM32F0xx_HAL_Driver/Src/stm32f0xx_hal_rcc.c ****           {
 654:Drivers/STM32F0xx_HAL_Driver/Src/stm32f0xx_hal_rcc.c ****             return HAL_TIMEOUT;
 655:Drivers/STM32F0xx_HAL_Driver/Src/stm32f0xx_hal_rcc.c ****           }
 656:Drivers/STM32F0xx_HAL_Driver/Src/stm32f0xx_hal_rcc.c ****         }
 657:Drivers/STM32F0xx_HAL_Driver/Src/stm32f0xx_hal_rcc.c ****       }
 658:Drivers/STM32F0xx_HAL_Driver/Src/stm32f0xx_hal_rcc.c ****     }
 659:Drivers/STM32F0xx_HAL_Driver/Src/stm32f0xx_hal_rcc.c ****   }
 660:Drivers/STM32F0xx_HAL_Driver/Src/stm32f0xx_hal_rcc.c **** #endif /* RCC_HSI48_SUPPORT */
 661:Drivers/STM32F0xx_HAL_Driver/Src/stm32f0xx_hal_rcc.c ****        
 662:Drivers/STM32F0xx_HAL_Driver/Src/stm32f0xx_hal_rcc.c ****   /*-------------------------------- PLL Configuration -----------------------*/
 663:Drivers/STM32F0xx_HAL_Driver/Src/stm32f0xx_hal_rcc.c ****   /* Check the parameters */
 664:Drivers/STM32F0xx_HAL_Driver/Src/stm32f0xx_hal_rcc.c ****   assert_param(IS_RCC_PLL(RCC_OscInitStruct->PLL.PLLState));
 898              		.loc 1 664 3 view .LVU265
 665:Drivers/STM32F0xx_HAL_Driver/Src/stm32f0xx_hal_rcc.c ****   if ((RCC_OscInitStruct->PLL.PLLState) != RCC_PLL_NONE)
 899              		.loc 1 665 3 view .LVU266
 900              		.loc 1 665 30 is_stmt 0 view .LVU267
 901 030c 236A     		ldr	r3, [r4, #32]
 902              		.loc 1 665 6 view .LVU268
 903 030e 002B     		cmp	r3, #0
 904 0310 00D1     		bne	.LCB874
 905 0312 B0E0     		b	.L93	@long jump
 906              	.LCB874:
 666:Drivers/STM32F0xx_HAL_Driver/Src/stm32f0xx_hal_rcc.c ****   {
 667:Drivers/STM32F0xx_HAL_Driver/Src/stm32f0xx_hal_rcc.c ****     /* Check if the PLL is used as system clock or not */
 668:Drivers/STM32F0xx_HAL_Driver/Src/stm32f0xx_hal_rcc.c ****     if(__HAL_RCC_GET_SYSCLK_SOURCE() != RCC_SYSCLKSOURCE_STATUS_PLLCLK)
 907              		.loc 1 668 5 is_stmt 1 view .LVU269
 908              		.loc 1 668 8 is_stmt 0 view .LVU270
 909 0314 5D4A     		ldr	r2, .L119
 910 0316 5168     		ldr	r1, [r2, #4]
 911 0318 0C22     		movs	r2, #12
 912 031a 0A40     		ands	r2, r1
 913              		.loc 1 668 7 view .LVU271
 914 031c 082A     		cmp	r2, #8
 915 031e 00D1     		bne	.LCB881
 916 0320 8AE0     		b	.L70	@long jump
 917              	.LCB881:
 669:Drivers/STM32F0xx_HAL_Driver/Src/stm32f0xx_hal_rcc.c ****     { 
 670:Drivers/STM32F0xx_HAL_Driver/Src/stm32f0xx_hal_rcc.c ****       if((RCC_OscInitStruct->PLL.PLLState) == RCC_PLL_ON)
 918              		.loc 1 670 7 is_stmt 1 view .LVU272
 919              		.loc 1 670 9 is_stmt 0 view .LVU273
 920 0322 022B     		cmp	r3, #2
 921 0324 4FD0     		beq	.L112
 671:Drivers/STM32F0xx_HAL_Driver/Src/stm32f0xx_hal_rcc.c ****       {
 672:Drivers/STM32F0xx_HAL_Driver/Src/stm32f0xx_hal_rcc.c ****         /* Check the parameters */
 673:Drivers/STM32F0xx_HAL_Driver/Src/stm32f0xx_hal_rcc.c ****         assert_param(IS_RCC_PLLSOURCE(RCC_OscInitStruct->PLL.PLLSource));
 674:Drivers/STM32F0xx_HAL_Driver/Src/stm32f0xx_hal_rcc.c ****         assert_param(IS_RCC_PLL_MUL(RCC_OscInitStruct->PLL.PLLMUL));
 675:Drivers/STM32F0xx_HAL_Driver/Src/stm32f0xx_hal_rcc.c ****         assert_param(IS_RCC_PREDIV(RCC_OscInitStruct->PLL.PREDIV));
 676:Drivers/STM32F0xx_HAL_Driver/Src/stm32f0xx_hal_rcc.c ****   
 677:Drivers/STM32F0xx_HAL_Driver/Src/stm32f0xx_hal_rcc.c ****         /* Disable the main PLL. */
 678:Drivers/STM32F0xx_HAL_Driver/Src/stm32f0xx_hal_rcc.c ****         __HAL_RCC_PLL_DISABLE();
ARM GAS  /tmp/ccAPLIyc.s 			page 31


 679:Drivers/STM32F0xx_HAL_Driver/Src/stm32f0xx_hal_rcc.c ****         
 680:Drivers/STM32F0xx_HAL_Driver/Src/stm32f0xx_hal_rcc.c ****         /* Get Start Tick */
 681:Drivers/STM32F0xx_HAL_Driver/Src/stm32f0xx_hal_rcc.c ****         tickstart = HAL_GetTick();
 682:Drivers/STM32F0xx_HAL_Driver/Src/stm32f0xx_hal_rcc.c ****         
 683:Drivers/STM32F0xx_HAL_Driver/Src/stm32f0xx_hal_rcc.c ****         /* Wait till PLL is disabled */
 684:Drivers/STM32F0xx_HAL_Driver/Src/stm32f0xx_hal_rcc.c ****         while(__HAL_RCC_GET_FLAG(RCC_FLAG_PLLRDY)  != RESET)
 685:Drivers/STM32F0xx_HAL_Driver/Src/stm32f0xx_hal_rcc.c ****         {
 686:Drivers/STM32F0xx_HAL_Driver/Src/stm32f0xx_hal_rcc.c ****           if((HAL_GetTick() - tickstart ) > PLL_TIMEOUT_VALUE)
 687:Drivers/STM32F0xx_HAL_Driver/Src/stm32f0xx_hal_rcc.c ****           {
 688:Drivers/STM32F0xx_HAL_Driver/Src/stm32f0xx_hal_rcc.c ****             return HAL_TIMEOUT;
 689:Drivers/STM32F0xx_HAL_Driver/Src/stm32f0xx_hal_rcc.c ****           }
 690:Drivers/STM32F0xx_HAL_Driver/Src/stm32f0xx_hal_rcc.c ****         }
 691:Drivers/STM32F0xx_HAL_Driver/Src/stm32f0xx_hal_rcc.c **** 
 692:Drivers/STM32F0xx_HAL_Driver/Src/stm32f0xx_hal_rcc.c ****         /* Configure the main PLL clock source, predivider and multiplication factor. */
 693:Drivers/STM32F0xx_HAL_Driver/Src/stm32f0xx_hal_rcc.c ****         __HAL_RCC_PLL_CONFIG(RCC_OscInitStruct->PLL.PLLSource,
 694:Drivers/STM32F0xx_HAL_Driver/Src/stm32f0xx_hal_rcc.c ****                              RCC_OscInitStruct->PLL.PREDIV,
 695:Drivers/STM32F0xx_HAL_Driver/Src/stm32f0xx_hal_rcc.c ****                              RCC_OscInitStruct->PLL.PLLMUL);
 696:Drivers/STM32F0xx_HAL_Driver/Src/stm32f0xx_hal_rcc.c ****         /* Enable the main PLL. */
 697:Drivers/STM32F0xx_HAL_Driver/Src/stm32f0xx_hal_rcc.c ****         __HAL_RCC_PLL_ENABLE();
 698:Drivers/STM32F0xx_HAL_Driver/Src/stm32f0xx_hal_rcc.c ****         
 699:Drivers/STM32F0xx_HAL_Driver/Src/stm32f0xx_hal_rcc.c ****         /* Get Start Tick */
 700:Drivers/STM32F0xx_HAL_Driver/Src/stm32f0xx_hal_rcc.c ****         tickstart = HAL_GetTick();
 701:Drivers/STM32F0xx_HAL_Driver/Src/stm32f0xx_hal_rcc.c ****         
 702:Drivers/STM32F0xx_HAL_Driver/Src/stm32f0xx_hal_rcc.c ****         /* Wait till PLL is ready */
 703:Drivers/STM32F0xx_HAL_Driver/Src/stm32f0xx_hal_rcc.c ****         while(__HAL_RCC_GET_FLAG(RCC_FLAG_PLLRDY)  == RESET)
 704:Drivers/STM32F0xx_HAL_Driver/Src/stm32f0xx_hal_rcc.c ****         {
 705:Drivers/STM32F0xx_HAL_Driver/Src/stm32f0xx_hal_rcc.c ****           if((HAL_GetTick() - tickstart ) > PLL_TIMEOUT_VALUE)
 706:Drivers/STM32F0xx_HAL_Driver/Src/stm32f0xx_hal_rcc.c ****           {
 707:Drivers/STM32F0xx_HAL_Driver/Src/stm32f0xx_hal_rcc.c ****             return HAL_TIMEOUT;
 708:Drivers/STM32F0xx_HAL_Driver/Src/stm32f0xx_hal_rcc.c ****           }
 709:Drivers/STM32F0xx_HAL_Driver/Src/stm32f0xx_hal_rcc.c ****         }
 710:Drivers/STM32F0xx_HAL_Driver/Src/stm32f0xx_hal_rcc.c ****       }
 711:Drivers/STM32F0xx_HAL_Driver/Src/stm32f0xx_hal_rcc.c ****       else
 712:Drivers/STM32F0xx_HAL_Driver/Src/stm32f0xx_hal_rcc.c ****       {
 713:Drivers/STM32F0xx_HAL_Driver/Src/stm32f0xx_hal_rcc.c ****         /* Disable the main PLL. */
 714:Drivers/STM32F0xx_HAL_Driver/Src/stm32f0xx_hal_rcc.c ****         __HAL_RCC_PLL_DISABLE();
 922              		.loc 1 714 9 is_stmt 1 view .LVU274
 923 0326 594A     		ldr	r2, .L119
 924 0328 1368     		ldr	r3, [r2]
 925 032a 5949     		ldr	r1, .L119+4
 926 032c 0B40     		ands	r3, r1
 927 032e 1360     		str	r3, [r2]
 715:Drivers/STM32F0xx_HAL_Driver/Src/stm32f0xx_hal_rcc.c ****  
 716:Drivers/STM32F0xx_HAL_Driver/Src/stm32f0xx_hal_rcc.c ****         /* Get Start Tick */
 717:Drivers/STM32F0xx_HAL_Driver/Src/stm32f0xx_hal_rcc.c ****         tickstart = HAL_GetTick();
 928              		.loc 1 717 9 view .LVU275
 929              		.loc 1 717 21 is_stmt 0 view .LVU276
 930 0330 FFF7FEFF 		bl	HAL_GetTick
 931              	.LVL57:
 932 0334 0400     		movs	r4, r0
 933              	.LVL58:
 718:Drivers/STM32F0xx_HAL_Driver/Src/stm32f0xx_hal_rcc.c ****         
 719:Drivers/STM32F0xx_HAL_Driver/Src/stm32f0xx_hal_rcc.c ****         /* Wait till PLL is disabled */  
 720:Drivers/STM32F0xx_HAL_Driver/Src/stm32f0xx_hal_rcc.c ****         while(__HAL_RCC_GET_FLAG(RCC_FLAG_PLLRDY)  != RESET)
 934              		.loc 1 720 9 is_stmt 1 view .LVU277
 935              	.L76:
 936              		.loc 1 720 14 view .LVU278
ARM GAS  /tmp/ccAPLIyc.s 			page 32


 937              		.loc 1 720 15 is_stmt 0 view .LVU279
 938 0336 554B     		ldr	r3, .L119
 939 0338 1B68     		ldr	r3, [r3]
 940              		.loc 1 720 14 view .LVU280
 941 033a 9B01     		lsls	r3, r3, #6
 942 033c 7AD5     		bpl	.L113
 721:Drivers/STM32F0xx_HAL_Driver/Src/stm32f0xx_hal_rcc.c ****         {
 722:Drivers/STM32F0xx_HAL_Driver/Src/stm32f0xx_hal_rcc.c ****           if((HAL_GetTick() - tickstart ) > PLL_TIMEOUT_VALUE)
 943              		.loc 1 722 11 is_stmt 1 view .LVU281
 944              		.loc 1 722 15 is_stmt 0 view .LVU282
 945 033e FFF7FEFF 		bl	HAL_GetTick
 946              	.LVL59:
 947              		.loc 1 722 29 view .LVU283
 948 0342 001B     		subs	r0, r0, r4
 949              		.loc 1 722 13 view .LVU284
 950 0344 0228     		cmp	r0, #2
 951 0346 F6D9     		bls	.L76
 723:Drivers/STM32F0xx_HAL_Driver/Src/stm32f0xx_hal_rcc.c ****           {
 724:Drivers/STM32F0xx_HAL_Driver/Src/stm32f0xx_hal_rcc.c ****             return HAL_TIMEOUT;
 952              		.loc 1 724 20 view .LVU285
 953 0348 0320     		movs	r0, #3
 954 034a 8EE0     		b	.L20
 955              	.LVL60:
 956              	.L110:
 957              	.LBB4:
 540:Drivers/STM32F0xx_HAL_Driver/Src/stm32f0xx_hal_rcc.c ****     }
 958              		.loc 1 540 7 is_stmt 1 view .LVU286
 959 034c 4F4A     		ldr	r2, .L119
 960 034e D369     		ldr	r3, [r2, #28]
 961 0350 5049     		ldr	r1, .L119+8
 962 0352 0B40     		ands	r3, r1
 963 0354 D361     		str	r3, [r2, #28]
 964 0356 C5E7     		b	.L48
 965              	.LVL61:
 966              	.L111:
 540:Drivers/STM32F0xx_HAL_Driver/Src/stm32f0xx_hal_rcc.c ****     }
 967              		.loc 1 540 7 is_stmt 0 view .LVU287
 968              	.LBE4:
 555:Drivers/STM32F0xx_HAL_Driver/Src/stm32f0xx_hal_rcc.c **** 
 969              		.loc 1 555 7 is_stmt 1 view .LVU288
 970 0358 4C4B     		ldr	r3, .L119
 971 035a 5A6B     		ldr	r2, [r3, #52]
 972 035c 0421     		movs	r1, #4
 973 035e 0A43     		orrs	r2, r1
 974 0360 5A63     		str	r2, [r3, #52]
 558:Drivers/STM32F0xx_HAL_Driver/Src/stm32f0xx_hal_rcc.c **** 
 975              		.loc 1 558 7 view .LVU289
 976 0362 5A6B     		ldr	r2, [r3, #52]
 977 0364 0339     		subs	r1, r1, #3
 978 0366 0A43     		orrs	r2, r1
 979 0368 5A63     		str	r2, [r3, #52]
 561:Drivers/STM32F0xx_HAL_Driver/Src/stm32f0xx_hal_rcc.c ****       
 980              		.loc 1 561 7 view .LVU290
 561:Drivers/STM32F0xx_HAL_Driver/Src/stm32f0xx_hal_rcc.c ****       
 981              		.loc 1 561 19 is_stmt 0 view .LVU291
 982 036a FFF7FEFF 		bl	HAL_GetTick
 983              	.LVL62:
ARM GAS  /tmp/ccAPLIyc.s 			page 33


 984 036e 0500     		movs	r5, r0
 985              	.LVL63:
 564:Drivers/STM32F0xx_HAL_Driver/Src/stm32f0xx_hal_rcc.c ****       {
 986              		.loc 1 564 7 is_stmt 1 view .LVU292
 987              	.L65:
 564:Drivers/STM32F0xx_HAL_Driver/Src/stm32f0xx_hal_rcc.c ****       {
 988              		.loc 1 564 12 view .LVU293
 564:Drivers/STM32F0xx_HAL_Driver/Src/stm32f0xx_hal_rcc.c ****       {
 989              		.loc 1 564 13 is_stmt 0 view .LVU294
 990 0370 464B     		ldr	r3, .L119
 991 0372 5B6B     		ldr	r3, [r3, #52]
 564:Drivers/STM32F0xx_HAL_Driver/Src/stm32f0xx_hal_rcc.c ****       {
 992              		.loc 1 564 12 view .LVU295
 993 0374 9B07     		lsls	r3, r3, #30
 994 0376 06D4     		bmi	.L114
 566:Drivers/STM32F0xx_HAL_Driver/Src/stm32f0xx_hal_rcc.c ****         {
 995              		.loc 1 566 9 is_stmt 1 view .LVU296
 566:Drivers/STM32F0xx_HAL_Driver/Src/stm32f0xx_hal_rcc.c ****         {
 996              		.loc 1 566 13 is_stmt 0 view .LVU297
 997 0378 FFF7FEFF 		bl	HAL_GetTick
 998              	.LVL64:
 566:Drivers/STM32F0xx_HAL_Driver/Src/stm32f0xx_hal_rcc.c ****         {
 999              		.loc 1 566 27 view .LVU298
 1000 037c 401B     		subs	r0, r0, r5
 566:Drivers/STM32F0xx_HAL_Driver/Src/stm32f0xx_hal_rcc.c ****         {
 1001              		.loc 1 566 11 view .LVU299
 1002 037e 0228     		cmp	r0, #2
 1003 0380 F6D9     		bls	.L65
 568:Drivers/STM32F0xx_HAL_Driver/Src/stm32f0xx_hal_rcc.c ****         }      
 1004              		.loc 1 568 18 view .LVU300
 1005 0382 0320     		movs	r0, #3
 1006 0384 71E0     		b	.L20
 1007              	.L114:
 573:Drivers/STM32F0xx_HAL_Driver/Src/stm32f0xx_hal_rcc.c ****     }
 1008              		.loc 1 573 7 is_stmt 1 view .LVU301
 1009 0386 4149     		ldr	r1, .L119
 1010 0388 4B6B     		ldr	r3, [r1, #52]
 1011 038a F822     		movs	r2, #248
 1012 038c 9343     		bics	r3, r2
 1013 038e A269     		ldr	r2, [r4, #24]
 1014 0390 D200     		lsls	r2, r2, #3
 1015 0392 1343     		orrs	r3, r2
 1016 0394 4B63     		str	r3, [r1, #52]
 1017 0396 B9E7     		b	.L63
 1018              	.LVL65:
 1019              	.L67:
 586:Drivers/STM32F0xx_HAL_Driver/Src/stm32f0xx_hal_rcc.c **** 
 1020              		.loc 1 586 7 view .LVU302
 1021 0398 3C4B     		ldr	r3, .L119
 1022 039a 5A6B     		ldr	r2, [r3, #52]
 1023 039c 0421     		movs	r1, #4
 1024 039e 0A43     		orrs	r2, r1
 1025 03a0 5A63     		str	r2, [r3, #52]
 589:Drivers/STM32F0xx_HAL_Driver/Src/stm32f0xx_hal_rcc.c **** 
 1026              		.loc 1 589 7 view .LVU303
 1027 03a2 5A6B     		ldr	r2, [r3, #52]
 1028 03a4 0339     		subs	r1, r1, #3
ARM GAS  /tmp/ccAPLIyc.s 			page 34


 1029 03a6 8A43     		bics	r2, r1
 1030 03a8 5A63     		str	r2, [r3, #52]
 592:Drivers/STM32F0xx_HAL_Driver/Src/stm32f0xx_hal_rcc.c ****       
 1031              		.loc 1 592 7 view .LVU304
 592:Drivers/STM32F0xx_HAL_Driver/Src/stm32f0xx_hal_rcc.c ****       
 1032              		.loc 1 592 19 is_stmt 0 view .LVU305
 1033 03aa FFF7FEFF 		bl	HAL_GetTick
 1034              	.LVL66:
 1035 03ae 0500     		movs	r5, r0
 1036              	.LVL67:
 595:Drivers/STM32F0xx_HAL_Driver/Src/stm32f0xx_hal_rcc.c ****       {
 1037              		.loc 1 595 7 is_stmt 1 view .LVU306
 1038              	.L68:
 595:Drivers/STM32F0xx_HAL_Driver/Src/stm32f0xx_hal_rcc.c ****       {
 1039              		.loc 1 595 12 view .LVU307
 595:Drivers/STM32F0xx_HAL_Driver/Src/stm32f0xx_hal_rcc.c ****       {
 1040              		.loc 1 595 13 is_stmt 0 view .LVU308
 1041 03b0 364B     		ldr	r3, .L119
 1042 03b2 5B6B     		ldr	r3, [r3, #52]
 595:Drivers/STM32F0xx_HAL_Driver/Src/stm32f0xx_hal_rcc.c ****       {
 1043              		.loc 1 595 12 view .LVU309
 1044 03b4 9B07     		lsls	r3, r3, #30
 1045 03b6 A9D5     		bpl	.L63
 597:Drivers/STM32F0xx_HAL_Driver/Src/stm32f0xx_hal_rcc.c ****         {
 1046              		.loc 1 597 9 is_stmt 1 view .LVU310
 597:Drivers/STM32F0xx_HAL_Driver/Src/stm32f0xx_hal_rcc.c ****         {
 1047              		.loc 1 597 13 is_stmt 0 view .LVU311
 1048 03b8 FFF7FEFF 		bl	HAL_GetTick
 1049              	.LVL68:
 597:Drivers/STM32F0xx_HAL_Driver/Src/stm32f0xx_hal_rcc.c ****         {
 1050              		.loc 1 597 27 view .LVU312
 1051 03bc 401B     		subs	r0, r0, r5
 597:Drivers/STM32F0xx_HAL_Driver/Src/stm32f0xx_hal_rcc.c ****         {
 1052              		.loc 1 597 11 view .LVU313
 1053 03be 0228     		cmp	r0, #2
 1054 03c0 F6D9     		bls	.L68
 599:Drivers/STM32F0xx_HAL_Driver/Src/stm32f0xx_hal_rcc.c ****         }
 1055              		.loc 1 599 18 view .LVU314
 1056 03c2 0320     		movs	r0, #3
 1057 03c4 51E0     		b	.L20
 1058              	.LVL69:
 1059              	.L112:
 673:Drivers/STM32F0xx_HAL_Driver/Src/stm32f0xx_hal_rcc.c ****         assert_param(IS_RCC_PLL_MUL(RCC_OscInitStruct->PLL.PLLMUL));
 1060              		.loc 1 673 9 is_stmt 1 view .LVU315
 674:Drivers/STM32F0xx_HAL_Driver/Src/stm32f0xx_hal_rcc.c ****         assert_param(IS_RCC_PREDIV(RCC_OscInitStruct->PLL.PREDIV));
 1061              		.loc 1 674 9 view .LVU316
 675:Drivers/STM32F0xx_HAL_Driver/Src/stm32f0xx_hal_rcc.c ****   
 1062              		.loc 1 675 9 view .LVU317
 678:Drivers/STM32F0xx_HAL_Driver/Src/stm32f0xx_hal_rcc.c ****         
 1063              		.loc 1 678 9 view .LVU318
 1064 03c6 314A     		ldr	r2, .L119
 1065 03c8 1368     		ldr	r3, [r2]
 1066 03ca 3149     		ldr	r1, .L119+4
 1067 03cc 0B40     		ands	r3, r1
 1068 03ce 1360     		str	r3, [r2]
 681:Drivers/STM32F0xx_HAL_Driver/Src/stm32f0xx_hal_rcc.c ****         
 1069              		.loc 1 681 9 view .LVU319
ARM GAS  /tmp/ccAPLIyc.s 			page 35


 681:Drivers/STM32F0xx_HAL_Driver/Src/stm32f0xx_hal_rcc.c ****         
 1070              		.loc 1 681 21 is_stmt 0 view .LVU320
 1071 03d0 FFF7FEFF 		bl	HAL_GetTick
 1072              	.LVL70:
 1073 03d4 0500     		movs	r5, r0
 1074              	.LVL71:
 684:Drivers/STM32F0xx_HAL_Driver/Src/stm32f0xx_hal_rcc.c ****         {
 1075              		.loc 1 684 9 is_stmt 1 view .LVU321
 1076              	.L72:
 684:Drivers/STM32F0xx_HAL_Driver/Src/stm32f0xx_hal_rcc.c ****         {
 1077              		.loc 1 684 14 view .LVU322
 684:Drivers/STM32F0xx_HAL_Driver/Src/stm32f0xx_hal_rcc.c ****         {
 1078              		.loc 1 684 15 is_stmt 0 view .LVU323
 1079 03d6 2D4B     		ldr	r3, .L119
 1080 03d8 1B68     		ldr	r3, [r3]
 684:Drivers/STM32F0xx_HAL_Driver/Src/stm32f0xx_hal_rcc.c ****         {
 1081              		.loc 1 684 14 view .LVU324
 1082 03da 9B01     		lsls	r3, r3, #6
 1083 03dc 06D5     		bpl	.L115
 686:Drivers/STM32F0xx_HAL_Driver/Src/stm32f0xx_hal_rcc.c ****           {
 1084              		.loc 1 686 11 is_stmt 1 view .LVU325
 686:Drivers/STM32F0xx_HAL_Driver/Src/stm32f0xx_hal_rcc.c ****           {
 1085              		.loc 1 686 15 is_stmt 0 view .LVU326
 1086 03de FFF7FEFF 		bl	HAL_GetTick
 1087              	.LVL72:
 686:Drivers/STM32F0xx_HAL_Driver/Src/stm32f0xx_hal_rcc.c ****           {
 1088              		.loc 1 686 29 view .LVU327
 1089 03e2 401B     		subs	r0, r0, r5
 686:Drivers/STM32F0xx_HAL_Driver/Src/stm32f0xx_hal_rcc.c ****           {
 1090              		.loc 1 686 13 view .LVU328
 1091 03e4 0228     		cmp	r0, #2
 1092 03e6 F6D9     		bls	.L72
 688:Drivers/STM32F0xx_HAL_Driver/Src/stm32f0xx_hal_rcc.c ****           }
 1093              		.loc 1 688 20 view .LVU329
 1094 03e8 0320     		movs	r0, #3
 1095 03ea 3EE0     		b	.L20
 1096              	.L115:
 693:Drivers/STM32F0xx_HAL_Driver/Src/stm32f0xx_hal_rcc.c ****                              RCC_OscInitStruct->PLL.PREDIV,
 1097              		.loc 1 693 9 is_stmt 1 view .LVU330
 693:Drivers/STM32F0xx_HAL_Driver/Src/stm32f0xx_hal_rcc.c ****                              RCC_OscInitStruct->PLL.PREDIV,
 1098              		.loc 1 693 9 view .LVU331
 1099 03ec 274B     		ldr	r3, .L119
 1100 03ee DA6A     		ldr	r2, [r3, #44]
 1101 03f0 0F21     		movs	r1, #15
 1102 03f2 8A43     		bics	r2, r1
 1103 03f4 E16A     		ldr	r1, [r4, #44]
 1104 03f6 0A43     		orrs	r2, r1
 1105 03f8 DA62     		str	r2, [r3, #44]
 693:Drivers/STM32F0xx_HAL_Driver/Src/stm32f0xx_hal_rcc.c ****                              RCC_OscInitStruct->PLL.PREDIV,
 1106              		.loc 1 693 9 view .LVU332
 1107 03fa 5A68     		ldr	r2, [r3, #4]
 1108 03fc 2649     		ldr	r1, .L119+12
 1109 03fe 0A40     		ands	r2, r1
 1110 0400 A16A     		ldr	r1, [r4, #40]
 1111 0402 606A     		ldr	r0, [r4, #36]
 1112 0404 0143     		orrs	r1, r0
 1113 0406 0A43     		orrs	r2, r1
ARM GAS  /tmp/ccAPLIyc.s 			page 36


 1114 0408 5A60     		str	r2, [r3, #4]
 693:Drivers/STM32F0xx_HAL_Driver/Src/stm32f0xx_hal_rcc.c ****                              RCC_OscInitStruct->PLL.PREDIV,
 1115              		.loc 1 693 9 view .LVU333
 697:Drivers/STM32F0xx_HAL_Driver/Src/stm32f0xx_hal_rcc.c ****         
 1116              		.loc 1 697 9 view .LVU334
 1117 040a 1968     		ldr	r1, [r3]
 1118 040c 8022     		movs	r2, #128
 1119 040e 5204     		lsls	r2, r2, #17
 1120 0410 0A43     		orrs	r2, r1
 1121 0412 1A60     		str	r2, [r3]
 700:Drivers/STM32F0xx_HAL_Driver/Src/stm32f0xx_hal_rcc.c ****         
 1122              		.loc 1 700 9 view .LVU335
 700:Drivers/STM32F0xx_HAL_Driver/Src/stm32f0xx_hal_rcc.c ****         
 1123              		.loc 1 700 21 is_stmt 0 view .LVU336
 1124 0414 FFF7FEFF 		bl	HAL_GetTick
 1125              	.LVL73:
 1126 0418 0400     		movs	r4, r0
 1127              	.LVL74:
 703:Drivers/STM32F0xx_HAL_Driver/Src/stm32f0xx_hal_rcc.c ****         {
 1128              		.loc 1 703 9 is_stmt 1 view .LVU337
 1129              	.L74:
 703:Drivers/STM32F0xx_HAL_Driver/Src/stm32f0xx_hal_rcc.c ****         {
 1130              		.loc 1 703 14 view .LVU338
 703:Drivers/STM32F0xx_HAL_Driver/Src/stm32f0xx_hal_rcc.c ****         {
 1131              		.loc 1 703 15 is_stmt 0 view .LVU339
 1132 041a 1C4B     		ldr	r3, .L119
 1133 041c 1B68     		ldr	r3, [r3]
 703:Drivers/STM32F0xx_HAL_Driver/Src/stm32f0xx_hal_rcc.c ****         {
 1134              		.loc 1 703 14 view .LVU340
 1135 041e 9B01     		lsls	r3, r3, #6
 1136 0420 06D4     		bmi	.L116
 705:Drivers/STM32F0xx_HAL_Driver/Src/stm32f0xx_hal_rcc.c ****           {
 1137              		.loc 1 705 11 is_stmt 1 view .LVU341
 705:Drivers/STM32F0xx_HAL_Driver/Src/stm32f0xx_hal_rcc.c ****           {
 1138              		.loc 1 705 15 is_stmt 0 view .LVU342
 1139 0422 FFF7FEFF 		bl	HAL_GetTick
 1140              	.LVL75:
 705:Drivers/STM32F0xx_HAL_Driver/Src/stm32f0xx_hal_rcc.c ****           {
 1141              		.loc 1 705 29 view .LVU343
 1142 0426 001B     		subs	r0, r0, r4
 705:Drivers/STM32F0xx_HAL_Driver/Src/stm32f0xx_hal_rcc.c ****           {
 1143              		.loc 1 705 13 view .LVU344
 1144 0428 0228     		cmp	r0, #2
 1145 042a F6D9     		bls	.L74
 707:Drivers/STM32F0xx_HAL_Driver/Src/stm32f0xx_hal_rcc.c ****           }
 1146              		.loc 1 707 20 view .LVU345
 1147 042c 0320     		movs	r0, #3
 1148 042e 1CE0     		b	.L20
 1149              	.L116:
 725:Drivers/STM32F0xx_HAL_Driver/Src/stm32f0xx_hal_rcc.c ****           }
 726:Drivers/STM32F0xx_HAL_Driver/Src/stm32f0xx_hal_rcc.c ****         }
 727:Drivers/STM32F0xx_HAL_Driver/Src/stm32f0xx_hal_rcc.c ****       }
 728:Drivers/STM32F0xx_HAL_Driver/Src/stm32f0xx_hal_rcc.c ****     }
 729:Drivers/STM32F0xx_HAL_Driver/Src/stm32f0xx_hal_rcc.c ****     else
 730:Drivers/STM32F0xx_HAL_Driver/Src/stm32f0xx_hal_rcc.c ****     {
 731:Drivers/STM32F0xx_HAL_Driver/Src/stm32f0xx_hal_rcc.c ****       /* Check if there is a request to disable the PLL used as System clock source */
 732:Drivers/STM32F0xx_HAL_Driver/Src/stm32f0xx_hal_rcc.c ****       if((RCC_OscInitStruct->PLL.PLLState) == RCC_PLL_OFF)
ARM GAS  /tmp/ccAPLIyc.s 			page 37


 733:Drivers/STM32F0xx_HAL_Driver/Src/stm32f0xx_hal_rcc.c ****       {
 734:Drivers/STM32F0xx_HAL_Driver/Src/stm32f0xx_hal_rcc.c ****         return HAL_ERROR;
 735:Drivers/STM32F0xx_HAL_Driver/Src/stm32f0xx_hal_rcc.c ****       }
 736:Drivers/STM32F0xx_HAL_Driver/Src/stm32f0xx_hal_rcc.c ****       else
 737:Drivers/STM32F0xx_HAL_Driver/Src/stm32f0xx_hal_rcc.c ****       {
 738:Drivers/STM32F0xx_HAL_Driver/Src/stm32f0xx_hal_rcc.c ****         /* Do not return HAL_ERROR if request repeats the current configuration */
 739:Drivers/STM32F0xx_HAL_Driver/Src/stm32f0xx_hal_rcc.c ****         pll_config  = RCC->CFGR;
 740:Drivers/STM32F0xx_HAL_Driver/Src/stm32f0xx_hal_rcc.c ****         pll_config2 = RCC->CFGR2;
 741:Drivers/STM32F0xx_HAL_Driver/Src/stm32f0xx_hal_rcc.c ****         if((READ_BIT(pll_config,  RCC_CFGR_PLLSRC)  != RCC_OscInitStruct->PLL.PLLSource) ||
 742:Drivers/STM32F0xx_HAL_Driver/Src/stm32f0xx_hal_rcc.c ****            (READ_BIT(pll_config2, RCC_CFGR2_PREDIV) != RCC_OscInitStruct->PLL.PREDIV)    ||
 743:Drivers/STM32F0xx_HAL_Driver/Src/stm32f0xx_hal_rcc.c ****            (READ_BIT(pll_config,  RCC_CFGR_PLLMUL)  != RCC_OscInitStruct->PLL.PLLMUL))
 744:Drivers/STM32F0xx_HAL_Driver/Src/stm32f0xx_hal_rcc.c ****         {
 745:Drivers/STM32F0xx_HAL_Driver/Src/stm32f0xx_hal_rcc.c ****           return HAL_ERROR;
 746:Drivers/STM32F0xx_HAL_Driver/Src/stm32f0xx_hal_rcc.c ****         }
 747:Drivers/STM32F0xx_HAL_Driver/Src/stm32f0xx_hal_rcc.c ****       }
 748:Drivers/STM32F0xx_HAL_Driver/Src/stm32f0xx_hal_rcc.c ****     }
 749:Drivers/STM32F0xx_HAL_Driver/Src/stm32f0xx_hal_rcc.c ****   }
 750:Drivers/STM32F0xx_HAL_Driver/Src/stm32f0xx_hal_rcc.c **** 
 751:Drivers/STM32F0xx_HAL_Driver/Src/stm32f0xx_hal_rcc.c ****   return HAL_OK;
 1150              		.loc 1 751 10 view .LVU346
 1151 0430 0020     		movs	r0, #0
 1152 0432 1AE0     		b	.L20
 1153              	.L113:
 1154              		.loc 1 751 10 view .LVU347
 1155 0434 0020     		movs	r0, #0
 1156 0436 18E0     		b	.L20
 1157              	.LVL76:
 1158              	.L70:
 732:Drivers/STM32F0xx_HAL_Driver/Src/stm32f0xx_hal_rcc.c ****       {
 1159              		.loc 1 732 7 is_stmt 1 view .LVU348
 732:Drivers/STM32F0xx_HAL_Driver/Src/stm32f0xx_hal_rcc.c ****       {
 1160              		.loc 1 732 9 is_stmt 0 view .LVU349
 1161 0438 012B     		cmp	r3, #1
 1162 043a 1ED0     		beq	.L97
 739:Drivers/STM32F0xx_HAL_Driver/Src/stm32f0xx_hal_rcc.c ****         pll_config2 = RCC->CFGR2;
 1163              		.loc 1 739 9 is_stmt 1 view .LVU350
 739:Drivers/STM32F0xx_HAL_Driver/Src/stm32f0xx_hal_rcc.c ****         pll_config2 = RCC->CFGR2;
 1164              		.loc 1 739 21 is_stmt 0 view .LVU351
 1165 043c 134B     		ldr	r3, .L119
 1166 043e 5A68     		ldr	r2, [r3, #4]
 1167              	.LVL77:
 740:Drivers/STM32F0xx_HAL_Driver/Src/stm32f0xx_hal_rcc.c ****         if((READ_BIT(pll_config,  RCC_CFGR_PLLSRC)  != RCC_OscInitStruct->PLL.PLLSource) ||
 1168              		.loc 1 740 9 is_stmt 1 view .LVU352
 740:Drivers/STM32F0xx_HAL_Driver/Src/stm32f0xx_hal_rcc.c ****         if((READ_BIT(pll_config,  RCC_CFGR_PLLSRC)  != RCC_OscInitStruct->PLL.PLLSource) ||
 1169              		.loc 1 740 21 is_stmt 0 view .LVU353
 1170 0440 D96A     		ldr	r1, [r3, #44]
 1171              	.LVL78:
 741:Drivers/STM32F0xx_HAL_Driver/Src/stm32f0xx_hal_rcc.c ****            (READ_BIT(pll_config2, RCC_CFGR2_PREDIV) != RCC_OscInitStruct->PLL.PREDIV)    ||
 1172              		.loc 1 741 9 is_stmt 1 view .LVU354
 741:Drivers/STM32F0xx_HAL_Driver/Src/stm32f0xx_hal_rcc.c ****            (READ_BIT(pll_config2, RCC_CFGR2_PREDIV) != RCC_OscInitStruct->PLL.PREDIV)    ||
 1173              		.loc 1 741 13 is_stmt 0 view .LVU355
 1174 0442 8023     		movs	r3, #128
 1175 0444 5B02     		lsls	r3, r3, #9
 1176 0446 1340     		ands	r3, r2
 741:Drivers/STM32F0xx_HAL_Driver/Src/stm32f0xx_hal_rcc.c ****            (READ_BIT(pll_config2, RCC_CFGR2_PREDIV) != RCC_OscInitStruct->PLL.PREDIV)    ||
 1177              		.loc 1 741 11 view .LVU356
 1178 0448 606A     		ldr	r0, [r4, #36]
ARM GAS  /tmp/ccAPLIyc.s 			page 38


 1179 044a 8342     		cmp	r3, r0
 1180 044c 17D1     		bne	.L98
 742:Drivers/STM32F0xx_HAL_Driver/Src/stm32f0xx_hal_rcc.c ****            (READ_BIT(pll_config,  RCC_CFGR_PLLMUL)  != RCC_OscInitStruct->PLL.PLLMUL))
 1181              		.loc 1 742 13 discriminator 1 view .LVU357
 1182 044e 0F23     		movs	r3, #15
 1183 0450 0B40     		ands	r3, r1
 741:Drivers/STM32F0xx_HAL_Driver/Src/stm32f0xx_hal_rcc.c ****            (READ_BIT(pll_config2, RCC_CFGR2_PREDIV) != RCC_OscInitStruct->PLL.PREDIV)    ||
 1184              		.loc 1 741 90 discriminator 1 view .LVU358
 1185 0452 E16A     		ldr	r1, [r4, #44]
 1186              	.LVL79:
 741:Drivers/STM32F0xx_HAL_Driver/Src/stm32f0xx_hal_rcc.c ****            (READ_BIT(pll_config2, RCC_CFGR2_PREDIV) != RCC_OscInitStruct->PLL.PREDIV)    ||
 1187              		.loc 1 741 90 discriminator 1 view .LVU359
 1188 0454 8B42     		cmp	r3, r1
 1189 0456 14D1     		bne	.L99
 743:Drivers/STM32F0xx_HAL_Driver/Src/stm32f0xx_hal_rcc.c ****         {
 1190              		.loc 1 743 13 view .LVU360
 1191 0458 F023     		movs	r3, #240
 1192 045a 9B03     		lsls	r3, r3, #14
 1193 045c 1A40     		ands	r2, r3
 1194              	.LVL80:
 743:Drivers/STM32F0xx_HAL_Driver/Src/stm32f0xx_hal_rcc.c ****         {
 1195              		.loc 1 743 78 view .LVU361
 1196 045e A36A     		ldr	r3, [r4, #40]
 742:Drivers/STM32F0xx_HAL_Driver/Src/stm32f0xx_hal_rcc.c ****            (READ_BIT(pll_config,  RCC_CFGR_PLLMUL)  != RCC_OscInitStruct->PLL.PLLMUL))
 1197              		.loc 1 742 90 view .LVU362
 1198 0460 9A42     		cmp	r2, r3
 1199 0462 10D1     		bne	.L100
 1200              		.loc 1 751 10 view .LVU363
 1201 0464 0020     		movs	r0, #0
 1202 0466 00E0     		b	.L20
 1203              	.LVL81:
 1204              	.L78:
 307:Drivers/STM32F0xx_HAL_Driver/Src/stm32f0xx_hal_rcc.c ****   }
 1205              		.loc 1 307 12 view .LVU364
 1206 0468 0120     		movs	r0, #1
 1207              	.LVL82:
 1208              	.L20:
 752:Drivers/STM32F0xx_HAL_Driver/Src/stm32f0xx_hal_rcc.c **** }
 1209              		.loc 1 752 1 view .LVU365
 1210 046a 02B0     		add	sp, sp, #8
 1211              		@ sp needed
 1212 046c 70BD     		pop	{r4, r5, r6, pc}
 1213              	.LVL83:
 1214              	.L103:
 325:Drivers/STM32F0xx_HAL_Driver/Src/stm32f0xx_hal_rcc.c ****       }
 1215              		.loc 1 325 16 view .LVU366
 1216 046e 0120     		movs	r0, #1
 1217              	.LVL84:
 325:Drivers/STM32F0xx_HAL_Driver/Src/stm32f0xx_hal_rcc.c ****       }
 1218              		.loc 1 325 16 view .LVU367
 1219 0470 FBE7     		b	.L20
 1220              	.L82:
 379:Drivers/STM32F0xx_HAL_Driver/Src/stm32f0xx_hal_rcc.c ****       }
 1221              		.loc 1 379 16 view .LVU368
 1222 0472 0120     		movs	r0, #1
 1223 0474 F9E7     		b	.L20
 1224              	.L93:
ARM GAS  /tmp/ccAPLIyc.s 			page 39


 751:Drivers/STM32F0xx_HAL_Driver/Src/stm32f0xx_hal_rcc.c **** }
 1225              		.loc 1 751 10 view .LVU369
 1226 0476 0020     		movs	r0, #0
 1227 0478 F7E7     		b	.L20
 1228              	.L97:
 734:Drivers/STM32F0xx_HAL_Driver/Src/stm32f0xx_hal_rcc.c ****       }
 1229              		.loc 1 734 16 view .LVU370
 1230 047a 0120     		movs	r0, #1
 1231 047c F5E7     		b	.L20
 1232              	.LVL85:
 1233              	.L98:
 745:Drivers/STM32F0xx_HAL_Driver/Src/stm32f0xx_hal_rcc.c ****         }
 1234              		.loc 1 745 18 view .LVU371
 1235 047e 0120     		movs	r0, #1
 1236 0480 F3E7     		b	.L20
 1237              	.LVL86:
 1238              	.L99:
 745:Drivers/STM32F0xx_HAL_Driver/Src/stm32f0xx_hal_rcc.c ****         }
 1239              		.loc 1 745 18 view .LVU372
 1240 0482 0120     		movs	r0, #1
 1241 0484 F1E7     		b	.L20
 1242              	.LVL87:
 1243              	.L100:
 745:Drivers/STM32F0xx_HAL_Driver/Src/stm32f0xx_hal_rcc.c ****         }
 1244              		.loc 1 745 18 view .LVU373
 1245 0486 0120     		movs	r0, #1
 1246 0488 EFE7     		b	.L20
 1247              	.L120:
 1248 048a C046     		.align	2
 1249              	.L119:
 1250 048c 00100240 		.word	1073876992
 1251 0490 FFFFFFFE 		.word	-16777217
 1252 0494 FFFFFFEF 		.word	-268435457
 1253 0498 FFFFC2FF 		.word	-3997697
 1254              		.cfi_endproc
 1255              	.LFE41:
 1257              		.section	.text.HAL_RCC_MCOConfig,"ax",%progbits
 1258              		.align	1
 1259              		.global	HAL_RCC_MCOConfig
 1260              		.syntax unified
 1261              		.code	16
 1262              		.thumb_func
 1263              		.fpu softvfp
 1265              	HAL_RCC_MCOConfig:
 1266              	.LVL88:
 1267              	.LFB43:
 753:Drivers/STM32F0xx_HAL_Driver/Src/stm32f0xx_hal_rcc.c **** 
 754:Drivers/STM32F0xx_HAL_Driver/Src/stm32f0xx_hal_rcc.c **** /**
 755:Drivers/STM32F0xx_HAL_Driver/Src/stm32f0xx_hal_rcc.c ****   * @brief  Initializes the CPU, AHB and APB buses clocks according to the specified 
 756:Drivers/STM32F0xx_HAL_Driver/Src/stm32f0xx_hal_rcc.c ****   *         parameters in the RCC_ClkInitStruct.
 757:Drivers/STM32F0xx_HAL_Driver/Src/stm32f0xx_hal_rcc.c ****   * @param  RCC_ClkInitStruct pointer to an RCC_OscInitTypeDef structure that
 758:Drivers/STM32F0xx_HAL_Driver/Src/stm32f0xx_hal_rcc.c ****   *         contains the configuration information for the RCC peripheral.
 759:Drivers/STM32F0xx_HAL_Driver/Src/stm32f0xx_hal_rcc.c ****   * @param  FLatency FLASH Latency                   
 760:Drivers/STM32F0xx_HAL_Driver/Src/stm32f0xx_hal_rcc.c ****   *          The value of this parameter depend on device used within the same series
 761:Drivers/STM32F0xx_HAL_Driver/Src/stm32f0xx_hal_rcc.c ****   * @note   The SystemCoreClock CMSIS variable is used to store System Clock Frequency 
 762:Drivers/STM32F0xx_HAL_Driver/Src/stm32f0xx_hal_rcc.c ****   *         and updated by @ref HAL_RCC_GetHCLKFreq() function called within this function
 763:Drivers/STM32F0xx_HAL_Driver/Src/stm32f0xx_hal_rcc.c ****   *
ARM GAS  /tmp/ccAPLIyc.s 			page 40


 764:Drivers/STM32F0xx_HAL_Driver/Src/stm32f0xx_hal_rcc.c ****   * @note   The HSI is used (enabled by hardware) as system clock source after
 765:Drivers/STM32F0xx_HAL_Driver/Src/stm32f0xx_hal_rcc.c ****   *         start-up from Reset, wake-up from STOP and STANDBY mode, or in case
 766:Drivers/STM32F0xx_HAL_Driver/Src/stm32f0xx_hal_rcc.c ****   *         of failure of the HSE used directly or indirectly as system clock
 767:Drivers/STM32F0xx_HAL_Driver/Src/stm32f0xx_hal_rcc.c ****   *         (if the Clock Security System CSS is enabled).
 768:Drivers/STM32F0xx_HAL_Driver/Src/stm32f0xx_hal_rcc.c ****   *           
 769:Drivers/STM32F0xx_HAL_Driver/Src/stm32f0xx_hal_rcc.c ****   * @note   A switch from one clock source to another occurs only if the target
 770:Drivers/STM32F0xx_HAL_Driver/Src/stm32f0xx_hal_rcc.c ****   *         clock source is ready (clock stable after start-up delay or PLL locked). 
 771:Drivers/STM32F0xx_HAL_Driver/Src/stm32f0xx_hal_rcc.c ****   *         If a clock source which is not yet ready is selected, the switch will
 772:Drivers/STM32F0xx_HAL_Driver/Src/stm32f0xx_hal_rcc.c ****   *         occur when the clock source will be ready. 
 773:Drivers/STM32F0xx_HAL_Driver/Src/stm32f0xx_hal_rcc.c ****   *         You can use @ref HAL_RCC_GetClockConfig() function to know which clock is
 774:Drivers/STM32F0xx_HAL_Driver/Src/stm32f0xx_hal_rcc.c ****   *         currently used as system clock source.
 775:Drivers/STM32F0xx_HAL_Driver/Src/stm32f0xx_hal_rcc.c ****   * @retval HAL status
 776:Drivers/STM32F0xx_HAL_Driver/Src/stm32f0xx_hal_rcc.c ****   */
 777:Drivers/STM32F0xx_HAL_Driver/Src/stm32f0xx_hal_rcc.c **** HAL_StatusTypeDef HAL_RCC_ClockConfig(RCC_ClkInitTypeDef  *RCC_ClkInitStruct, uint32_t FLatency)
 778:Drivers/STM32F0xx_HAL_Driver/Src/stm32f0xx_hal_rcc.c **** {
 779:Drivers/STM32F0xx_HAL_Driver/Src/stm32f0xx_hal_rcc.c ****   uint32_t tickstart;
 780:Drivers/STM32F0xx_HAL_Driver/Src/stm32f0xx_hal_rcc.c **** 
 781:Drivers/STM32F0xx_HAL_Driver/Src/stm32f0xx_hal_rcc.c ****   /* Check Null pointer */
 782:Drivers/STM32F0xx_HAL_Driver/Src/stm32f0xx_hal_rcc.c ****   if(RCC_ClkInitStruct == NULL)
 783:Drivers/STM32F0xx_HAL_Driver/Src/stm32f0xx_hal_rcc.c ****   {
 784:Drivers/STM32F0xx_HAL_Driver/Src/stm32f0xx_hal_rcc.c ****     return HAL_ERROR;
 785:Drivers/STM32F0xx_HAL_Driver/Src/stm32f0xx_hal_rcc.c ****   }
 786:Drivers/STM32F0xx_HAL_Driver/Src/stm32f0xx_hal_rcc.c **** 
 787:Drivers/STM32F0xx_HAL_Driver/Src/stm32f0xx_hal_rcc.c ****   /* Check the parameters */
 788:Drivers/STM32F0xx_HAL_Driver/Src/stm32f0xx_hal_rcc.c ****   assert_param(IS_RCC_CLOCKTYPE(RCC_ClkInitStruct->ClockType));
 789:Drivers/STM32F0xx_HAL_Driver/Src/stm32f0xx_hal_rcc.c ****   assert_param(IS_FLASH_LATENCY(FLatency));
 790:Drivers/STM32F0xx_HAL_Driver/Src/stm32f0xx_hal_rcc.c **** 
 791:Drivers/STM32F0xx_HAL_Driver/Src/stm32f0xx_hal_rcc.c ****   /* To correctly read data from FLASH memory, the number of wait states (LATENCY) 
 792:Drivers/STM32F0xx_HAL_Driver/Src/stm32f0xx_hal_rcc.c ****   must be correctly programmed according to the frequency of the CPU clock 
 793:Drivers/STM32F0xx_HAL_Driver/Src/stm32f0xx_hal_rcc.c ****     (HCLK) of the device. */
 794:Drivers/STM32F0xx_HAL_Driver/Src/stm32f0xx_hal_rcc.c **** 
 795:Drivers/STM32F0xx_HAL_Driver/Src/stm32f0xx_hal_rcc.c ****   /* Increasing the number of wait states because of higher CPU frequency */
 796:Drivers/STM32F0xx_HAL_Driver/Src/stm32f0xx_hal_rcc.c ****   if(FLatency > __HAL_FLASH_GET_LATENCY())
 797:Drivers/STM32F0xx_HAL_Driver/Src/stm32f0xx_hal_rcc.c ****   {    
 798:Drivers/STM32F0xx_HAL_Driver/Src/stm32f0xx_hal_rcc.c ****     /* Program the new number of wait states to the LATENCY bits in the FLASH_ACR register */
 799:Drivers/STM32F0xx_HAL_Driver/Src/stm32f0xx_hal_rcc.c ****     __HAL_FLASH_SET_LATENCY(FLatency);
 800:Drivers/STM32F0xx_HAL_Driver/Src/stm32f0xx_hal_rcc.c ****     
 801:Drivers/STM32F0xx_HAL_Driver/Src/stm32f0xx_hal_rcc.c ****     /* Check that the new number of wait states is taken into account to access the Flash
 802:Drivers/STM32F0xx_HAL_Driver/Src/stm32f0xx_hal_rcc.c ****     memory by reading the FLASH_ACR register */
 803:Drivers/STM32F0xx_HAL_Driver/Src/stm32f0xx_hal_rcc.c ****     if(__HAL_FLASH_GET_LATENCY() != FLatency)
 804:Drivers/STM32F0xx_HAL_Driver/Src/stm32f0xx_hal_rcc.c ****     {
 805:Drivers/STM32F0xx_HAL_Driver/Src/stm32f0xx_hal_rcc.c ****       return HAL_ERROR;
 806:Drivers/STM32F0xx_HAL_Driver/Src/stm32f0xx_hal_rcc.c ****     }
 807:Drivers/STM32F0xx_HAL_Driver/Src/stm32f0xx_hal_rcc.c ****   }
 808:Drivers/STM32F0xx_HAL_Driver/Src/stm32f0xx_hal_rcc.c **** 
 809:Drivers/STM32F0xx_HAL_Driver/Src/stm32f0xx_hal_rcc.c ****   /*-------------------------- HCLK Configuration --------------------------*/
 810:Drivers/STM32F0xx_HAL_Driver/Src/stm32f0xx_hal_rcc.c ****   if(((RCC_ClkInitStruct->ClockType) & RCC_CLOCKTYPE_HCLK) == RCC_CLOCKTYPE_HCLK)
 811:Drivers/STM32F0xx_HAL_Driver/Src/stm32f0xx_hal_rcc.c ****   {
 812:Drivers/STM32F0xx_HAL_Driver/Src/stm32f0xx_hal_rcc.c ****     /* Set the highest APB divider in order to ensure that we do not go through
 813:Drivers/STM32F0xx_HAL_Driver/Src/stm32f0xx_hal_rcc.c ****        a non-spec phase whatever we decrease or increase HCLK. */
 814:Drivers/STM32F0xx_HAL_Driver/Src/stm32f0xx_hal_rcc.c ****     if(((RCC_ClkInitStruct->ClockType) & RCC_CLOCKTYPE_PCLK1) == RCC_CLOCKTYPE_PCLK1)
 815:Drivers/STM32F0xx_HAL_Driver/Src/stm32f0xx_hal_rcc.c ****     {
 816:Drivers/STM32F0xx_HAL_Driver/Src/stm32f0xx_hal_rcc.c ****       MODIFY_REG(RCC->CFGR, RCC_CFGR_PPRE, RCC_HCLK_DIV16);
 817:Drivers/STM32F0xx_HAL_Driver/Src/stm32f0xx_hal_rcc.c ****     }
 818:Drivers/STM32F0xx_HAL_Driver/Src/stm32f0xx_hal_rcc.c **** 
 819:Drivers/STM32F0xx_HAL_Driver/Src/stm32f0xx_hal_rcc.c ****     /* Set the new HCLK clock divider */
 820:Drivers/STM32F0xx_HAL_Driver/Src/stm32f0xx_hal_rcc.c ****     assert_param(IS_RCC_HCLK(RCC_ClkInitStruct->AHBCLKDivider));
ARM GAS  /tmp/ccAPLIyc.s 			page 41


 821:Drivers/STM32F0xx_HAL_Driver/Src/stm32f0xx_hal_rcc.c ****     MODIFY_REG(RCC->CFGR, RCC_CFGR_HPRE, RCC_ClkInitStruct->AHBCLKDivider);
 822:Drivers/STM32F0xx_HAL_Driver/Src/stm32f0xx_hal_rcc.c ****   }
 823:Drivers/STM32F0xx_HAL_Driver/Src/stm32f0xx_hal_rcc.c **** 
 824:Drivers/STM32F0xx_HAL_Driver/Src/stm32f0xx_hal_rcc.c ****   /*------------------------- SYSCLK Configuration ---------------------------*/ 
 825:Drivers/STM32F0xx_HAL_Driver/Src/stm32f0xx_hal_rcc.c ****   if(((RCC_ClkInitStruct->ClockType) & RCC_CLOCKTYPE_SYSCLK) == RCC_CLOCKTYPE_SYSCLK)
 826:Drivers/STM32F0xx_HAL_Driver/Src/stm32f0xx_hal_rcc.c ****   {
 827:Drivers/STM32F0xx_HAL_Driver/Src/stm32f0xx_hal_rcc.c ****     assert_param(IS_RCC_SYSCLKSOURCE(RCC_ClkInitStruct->SYSCLKSource));
 828:Drivers/STM32F0xx_HAL_Driver/Src/stm32f0xx_hal_rcc.c ****     
 829:Drivers/STM32F0xx_HAL_Driver/Src/stm32f0xx_hal_rcc.c ****     /* HSE is selected as System Clock Source */
 830:Drivers/STM32F0xx_HAL_Driver/Src/stm32f0xx_hal_rcc.c ****     if(RCC_ClkInitStruct->SYSCLKSource == RCC_SYSCLKSOURCE_HSE)
 831:Drivers/STM32F0xx_HAL_Driver/Src/stm32f0xx_hal_rcc.c ****     {
 832:Drivers/STM32F0xx_HAL_Driver/Src/stm32f0xx_hal_rcc.c ****       /* Check the HSE ready flag */  
 833:Drivers/STM32F0xx_HAL_Driver/Src/stm32f0xx_hal_rcc.c ****       if(__HAL_RCC_GET_FLAG(RCC_FLAG_HSERDY) == RESET)
 834:Drivers/STM32F0xx_HAL_Driver/Src/stm32f0xx_hal_rcc.c ****       {
 835:Drivers/STM32F0xx_HAL_Driver/Src/stm32f0xx_hal_rcc.c ****         return HAL_ERROR;
 836:Drivers/STM32F0xx_HAL_Driver/Src/stm32f0xx_hal_rcc.c ****       }
 837:Drivers/STM32F0xx_HAL_Driver/Src/stm32f0xx_hal_rcc.c ****     }
 838:Drivers/STM32F0xx_HAL_Driver/Src/stm32f0xx_hal_rcc.c ****     /* PLL is selected as System Clock Source */
 839:Drivers/STM32F0xx_HAL_Driver/Src/stm32f0xx_hal_rcc.c ****     else if(RCC_ClkInitStruct->SYSCLKSource == RCC_SYSCLKSOURCE_PLLCLK)
 840:Drivers/STM32F0xx_HAL_Driver/Src/stm32f0xx_hal_rcc.c ****     {
 841:Drivers/STM32F0xx_HAL_Driver/Src/stm32f0xx_hal_rcc.c ****       /* Check the PLL ready flag */  
 842:Drivers/STM32F0xx_HAL_Driver/Src/stm32f0xx_hal_rcc.c ****       if(__HAL_RCC_GET_FLAG(RCC_FLAG_PLLRDY) == RESET)
 843:Drivers/STM32F0xx_HAL_Driver/Src/stm32f0xx_hal_rcc.c ****       {
 844:Drivers/STM32F0xx_HAL_Driver/Src/stm32f0xx_hal_rcc.c ****         return HAL_ERROR;
 845:Drivers/STM32F0xx_HAL_Driver/Src/stm32f0xx_hal_rcc.c ****       }
 846:Drivers/STM32F0xx_HAL_Driver/Src/stm32f0xx_hal_rcc.c ****     }
 847:Drivers/STM32F0xx_HAL_Driver/Src/stm32f0xx_hal_rcc.c **** #if defined(RCC_CFGR_SWS_HSI48)
 848:Drivers/STM32F0xx_HAL_Driver/Src/stm32f0xx_hal_rcc.c ****     /* HSI48 is selected as System Clock Source */
 849:Drivers/STM32F0xx_HAL_Driver/Src/stm32f0xx_hal_rcc.c ****     else if(RCC_ClkInitStruct->SYSCLKSource == RCC_SYSCLKSOURCE_HSI48)
 850:Drivers/STM32F0xx_HAL_Driver/Src/stm32f0xx_hal_rcc.c ****     {
 851:Drivers/STM32F0xx_HAL_Driver/Src/stm32f0xx_hal_rcc.c ****       /* Check the HSI48 ready flag */
 852:Drivers/STM32F0xx_HAL_Driver/Src/stm32f0xx_hal_rcc.c ****       if(__HAL_RCC_GET_FLAG(RCC_FLAG_HSI48RDY) == RESET)
 853:Drivers/STM32F0xx_HAL_Driver/Src/stm32f0xx_hal_rcc.c ****       {
 854:Drivers/STM32F0xx_HAL_Driver/Src/stm32f0xx_hal_rcc.c ****         return HAL_ERROR;
 855:Drivers/STM32F0xx_HAL_Driver/Src/stm32f0xx_hal_rcc.c ****       }
 856:Drivers/STM32F0xx_HAL_Driver/Src/stm32f0xx_hal_rcc.c ****     }
 857:Drivers/STM32F0xx_HAL_Driver/Src/stm32f0xx_hal_rcc.c **** #endif /* RCC_CFGR_SWS_HSI48 */
 858:Drivers/STM32F0xx_HAL_Driver/Src/stm32f0xx_hal_rcc.c ****     /* HSI is selected as System Clock Source */
 859:Drivers/STM32F0xx_HAL_Driver/Src/stm32f0xx_hal_rcc.c ****     else
 860:Drivers/STM32F0xx_HAL_Driver/Src/stm32f0xx_hal_rcc.c ****     {
 861:Drivers/STM32F0xx_HAL_Driver/Src/stm32f0xx_hal_rcc.c ****       /* Check the HSI ready flag */  
 862:Drivers/STM32F0xx_HAL_Driver/Src/stm32f0xx_hal_rcc.c ****       if(__HAL_RCC_GET_FLAG(RCC_FLAG_HSIRDY) == RESET)
 863:Drivers/STM32F0xx_HAL_Driver/Src/stm32f0xx_hal_rcc.c ****       {
 864:Drivers/STM32F0xx_HAL_Driver/Src/stm32f0xx_hal_rcc.c ****         return HAL_ERROR;
 865:Drivers/STM32F0xx_HAL_Driver/Src/stm32f0xx_hal_rcc.c ****       }
 866:Drivers/STM32F0xx_HAL_Driver/Src/stm32f0xx_hal_rcc.c ****     }
 867:Drivers/STM32F0xx_HAL_Driver/Src/stm32f0xx_hal_rcc.c ****     __HAL_RCC_SYSCLK_CONFIG(RCC_ClkInitStruct->SYSCLKSource);
 868:Drivers/STM32F0xx_HAL_Driver/Src/stm32f0xx_hal_rcc.c **** 
 869:Drivers/STM32F0xx_HAL_Driver/Src/stm32f0xx_hal_rcc.c ****     /* Get Start Tick */
 870:Drivers/STM32F0xx_HAL_Driver/Src/stm32f0xx_hal_rcc.c ****     tickstart = HAL_GetTick();
 871:Drivers/STM32F0xx_HAL_Driver/Src/stm32f0xx_hal_rcc.c ****     
 872:Drivers/STM32F0xx_HAL_Driver/Src/stm32f0xx_hal_rcc.c ****     while (__HAL_RCC_GET_SYSCLK_SOURCE() != (RCC_ClkInitStruct->SYSCLKSource << RCC_CFGR_SWS_Pos))
 873:Drivers/STM32F0xx_HAL_Driver/Src/stm32f0xx_hal_rcc.c ****     {
 874:Drivers/STM32F0xx_HAL_Driver/Src/stm32f0xx_hal_rcc.c ****       if((HAL_GetTick() - tickstart ) > CLOCKSWITCH_TIMEOUT_VALUE)
 875:Drivers/STM32F0xx_HAL_Driver/Src/stm32f0xx_hal_rcc.c ****       {
 876:Drivers/STM32F0xx_HAL_Driver/Src/stm32f0xx_hal_rcc.c ****         return HAL_TIMEOUT;
 877:Drivers/STM32F0xx_HAL_Driver/Src/stm32f0xx_hal_rcc.c ****       }
ARM GAS  /tmp/ccAPLIyc.s 			page 42


 878:Drivers/STM32F0xx_HAL_Driver/Src/stm32f0xx_hal_rcc.c ****     }
 879:Drivers/STM32F0xx_HAL_Driver/Src/stm32f0xx_hal_rcc.c ****   }
 880:Drivers/STM32F0xx_HAL_Driver/Src/stm32f0xx_hal_rcc.c **** 
 881:Drivers/STM32F0xx_HAL_Driver/Src/stm32f0xx_hal_rcc.c ****   /* Decreasing the number of wait states because of lower CPU frequency */
 882:Drivers/STM32F0xx_HAL_Driver/Src/stm32f0xx_hal_rcc.c ****   if(FLatency < __HAL_FLASH_GET_LATENCY())
 883:Drivers/STM32F0xx_HAL_Driver/Src/stm32f0xx_hal_rcc.c ****   {    
 884:Drivers/STM32F0xx_HAL_Driver/Src/stm32f0xx_hal_rcc.c ****     /* Program the new number of wait states to the LATENCY bits in the FLASH_ACR register */
 885:Drivers/STM32F0xx_HAL_Driver/Src/stm32f0xx_hal_rcc.c ****     __HAL_FLASH_SET_LATENCY(FLatency);
 886:Drivers/STM32F0xx_HAL_Driver/Src/stm32f0xx_hal_rcc.c ****     
 887:Drivers/STM32F0xx_HAL_Driver/Src/stm32f0xx_hal_rcc.c ****     /* Check that the new number of wait states is taken into account to access the Flash
 888:Drivers/STM32F0xx_HAL_Driver/Src/stm32f0xx_hal_rcc.c ****     memory by reading the FLASH_ACR register */
 889:Drivers/STM32F0xx_HAL_Driver/Src/stm32f0xx_hal_rcc.c ****     if(__HAL_FLASH_GET_LATENCY() != FLatency)
 890:Drivers/STM32F0xx_HAL_Driver/Src/stm32f0xx_hal_rcc.c ****     {
 891:Drivers/STM32F0xx_HAL_Driver/Src/stm32f0xx_hal_rcc.c ****       return HAL_ERROR;
 892:Drivers/STM32F0xx_HAL_Driver/Src/stm32f0xx_hal_rcc.c ****     }
 893:Drivers/STM32F0xx_HAL_Driver/Src/stm32f0xx_hal_rcc.c ****   }    
 894:Drivers/STM32F0xx_HAL_Driver/Src/stm32f0xx_hal_rcc.c **** 
 895:Drivers/STM32F0xx_HAL_Driver/Src/stm32f0xx_hal_rcc.c ****   /*-------------------------- PCLK1 Configuration ---------------------------*/ 
 896:Drivers/STM32F0xx_HAL_Driver/Src/stm32f0xx_hal_rcc.c ****   if(((RCC_ClkInitStruct->ClockType) & RCC_CLOCKTYPE_PCLK1) == RCC_CLOCKTYPE_PCLK1)
 897:Drivers/STM32F0xx_HAL_Driver/Src/stm32f0xx_hal_rcc.c ****   {
 898:Drivers/STM32F0xx_HAL_Driver/Src/stm32f0xx_hal_rcc.c ****     assert_param(IS_RCC_PCLK(RCC_ClkInitStruct->APB1CLKDivider));
 899:Drivers/STM32F0xx_HAL_Driver/Src/stm32f0xx_hal_rcc.c ****     MODIFY_REG(RCC->CFGR, RCC_CFGR_PPRE, RCC_ClkInitStruct->APB1CLKDivider);
 900:Drivers/STM32F0xx_HAL_Driver/Src/stm32f0xx_hal_rcc.c ****   }
 901:Drivers/STM32F0xx_HAL_Driver/Src/stm32f0xx_hal_rcc.c ****   
 902:Drivers/STM32F0xx_HAL_Driver/Src/stm32f0xx_hal_rcc.c ****   /* Update the SystemCoreClock global variable */
 903:Drivers/STM32F0xx_HAL_Driver/Src/stm32f0xx_hal_rcc.c ****   SystemCoreClock = HAL_RCC_GetSysClockFreq() >> AHBPrescTable[(RCC->CFGR & RCC_CFGR_HPRE)>> RCC_CF
 904:Drivers/STM32F0xx_HAL_Driver/Src/stm32f0xx_hal_rcc.c **** 
 905:Drivers/STM32F0xx_HAL_Driver/Src/stm32f0xx_hal_rcc.c ****   /* Configure the source of time base considering new system clocks settings*/
 906:Drivers/STM32F0xx_HAL_Driver/Src/stm32f0xx_hal_rcc.c ****   HAL_InitTick (TICK_INT_PRIORITY);
 907:Drivers/STM32F0xx_HAL_Driver/Src/stm32f0xx_hal_rcc.c ****   
 908:Drivers/STM32F0xx_HAL_Driver/Src/stm32f0xx_hal_rcc.c ****   return HAL_OK;
 909:Drivers/STM32F0xx_HAL_Driver/Src/stm32f0xx_hal_rcc.c **** }
 910:Drivers/STM32F0xx_HAL_Driver/Src/stm32f0xx_hal_rcc.c **** 
 911:Drivers/STM32F0xx_HAL_Driver/Src/stm32f0xx_hal_rcc.c **** /**
 912:Drivers/STM32F0xx_HAL_Driver/Src/stm32f0xx_hal_rcc.c ****   * @}
 913:Drivers/STM32F0xx_HAL_Driver/Src/stm32f0xx_hal_rcc.c ****   */
 914:Drivers/STM32F0xx_HAL_Driver/Src/stm32f0xx_hal_rcc.c **** 
 915:Drivers/STM32F0xx_HAL_Driver/Src/stm32f0xx_hal_rcc.c **** /** @defgroup RCC_Exported_Functions_Group2 Peripheral Control functions
 916:Drivers/STM32F0xx_HAL_Driver/Src/stm32f0xx_hal_rcc.c ****   *  @brief   RCC clocks control functions
 917:Drivers/STM32F0xx_HAL_Driver/Src/stm32f0xx_hal_rcc.c ****   *
 918:Drivers/STM32F0xx_HAL_Driver/Src/stm32f0xx_hal_rcc.c ****   @verbatim   
 919:Drivers/STM32F0xx_HAL_Driver/Src/stm32f0xx_hal_rcc.c ****   ===============================================================================
 920:Drivers/STM32F0xx_HAL_Driver/Src/stm32f0xx_hal_rcc.c ****                   ##### Peripheral Control functions #####
 921:Drivers/STM32F0xx_HAL_Driver/Src/stm32f0xx_hal_rcc.c ****   ===============================================================================  
 922:Drivers/STM32F0xx_HAL_Driver/Src/stm32f0xx_hal_rcc.c ****     [..]
 923:Drivers/STM32F0xx_HAL_Driver/Src/stm32f0xx_hal_rcc.c ****     This subsection provides a set of functions allowing to control the RCC Clocks 
 924:Drivers/STM32F0xx_HAL_Driver/Src/stm32f0xx_hal_rcc.c ****     frequencies.
 925:Drivers/STM32F0xx_HAL_Driver/Src/stm32f0xx_hal_rcc.c **** 
 926:Drivers/STM32F0xx_HAL_Driver/Src/stm32f0xx_hal_rcc.c ****   @endverbatim
 927:Drivers/STM32F0xx_HAL_Driver/Src/stm32f0xx_hal_rcc.c ****   * @{
 928:Drivers/STM32F0xx_HAL_Driver/Src/stm32f0xx_hal_rcc.c ****   */
 929:Drivers/STM32F0xx_HAL_Driver/Src/stm32f0xx_hal_rcc.c **** 
 930:Drivers/STM32F0xx_HAL_Driver/Src/stm32f0xx_hal_rcc.c **** #if defined(RCC_CFGR_MCOPRE)
 931:Drivers/STM32F0xx_HAL_Driver/Src/stm32f0xx_hal_rcc.c **** /**
 932:Drivers/STM32F0xx_HAL_Driver/Src/stm32f0xx_hal_rcc.c ****   * @brief  Selects the clock source to output on MCO pin.
 933:Drivers/STM32F0xx_HAL_Driver/Src/stm32f0xx_hal_rcc.c ****   * @note   MCO pin should be configured in alternate function mode.
 934:Drivers/STM32F0xx_HAL_Driver/Src/stm32f0xx_hal_rcc.c ****   * @param  RCC_MCOx specifies the output direction for the clock source.
ARM GAS  /tmp/ccAPLIyc.s 			page 43


 935:Drivers/STM32F0xx_HAL_Driver/Src/stm32f0xx_hal_rcc.c ****   *          This parameter can be one of the following values:
 936:Drivers/STM32F0xx_HAL_Driver/Src/stm32f0xx_hal_rcc.c ****   *            @arg @ref RCC_MCO1 Clock source to output on MCO1 pin(PA8).
 937:Drivers/STM32F0xx_HAL_Driver/Src/stm32f0xx_hal_rcc.c ****   * @param  RCC_MCOSource specifies the clock source to output.
 938:Drivers/STM32F0xx_HAL_Driver/Src/stm32f0xx_hal_rcc.c ****   *          This parameter can be one of the following values:
 939:Drivers/STM32F0xx_HAL_Driver/Src/stm32f0xx_hal_rcc.c ****   *            @arg @ref RCC_MCO1SOURCE_NOCLOCK     No clock selected
 940:Drivers/STM32F0xx_HAL_Driver/Src/stm32f0xx_hal_rcc.c ****   *            @arg @ref RCC_MCO1SOURCE_SYSCLK      System Clock selected as MCO clock
 941:Drivers/STM32F0xx_HAL_Driver/Src/stm32f0xx_hal_rcc.c ****   *            @arg @ref RCC_MCO1SOURCE_HSI         HSI selected as MCO clock
 942:Drivers/STM32F0xx_HAL_Driver/Src/stm32f0xx_hal_rcc.c ****   *            @arg @ref RCC_MCO1SOURCE_HSE         HSE selected as MCO clock
 943:Drivers/STM32F0xx_HAL_Driver/Src/stm32f0xx_hal_rcc.c ****   *            @arg @ref RCC_MCO1SOURCE_LSI         LSI selected as MCO clock
 944:Drivers/STM32F0xx_HAL_Driver/Src/stm32f0xx_hal_rcc.c ****   *            @arg @ref RCC_MCO1SOURCE_LSE         LSE selected as MCO clock
 945:Drivers/STM32F0xx_HAL_Driver/Src/stm32f0xx_hal_rcc.c ****   *            @arg @ref RCC_MCO1SOURCE_HSI14       HSI14 selected as MCO clock
 946:Drivers/STM32F0xx_HAL_Driver/Src/stm32f0xx_hal_rcc.c ****   @if STM32F042x6
 947:Drivers/STM32F0xx_HAL_Driver/Src/stm32f0xx_hal_rcc.c ****   *            @arg @ref RCC_MCO1SOURCE_HSI48       HSI48 selected as MCO clock
 948:Drivers/STM32F0xx_HAL_Driver/Src/stm32f0xx_hal_rcc.c ****   *            @arg @ref RCC_MCO1SOURCE_PLLCLK      PLLCLK selected as MCO clock
 949:Drivers/STM32F0xx_HAL_Driver/Src/stm32f0xx_hal_rcc.c ****   @elseif STM32F048xx
 950:Drivers/STM32F0xx_HAL_Driver/Src/stm32f0xx_hal_rcc.c ****   *            @arg @ref RCC_MCO1SOURCE_HSI48       HSI48 selected as MCO clock
 951:Drivers/STM32F0xx_HAL_Driver/Src/stm32f0xx_hal_rcc.c ****   *            @arg @ref RCC_MCO1SOURCE_PLLCLK      PLLCLK selected as MCO clock
 952:Drivers/STM32F0xx_HAL_Driver/Src/stm32f0xx_hal_rcc.c ****   @elseif STM32F071xB
 953:Drivers/STM32F0xx_HAL_Driver/Src/stm32f0xx_hal_rcc.c ****   *            @arg @ref RCC_MCO1SOURCE_HSI48       HSI48 selected as MCO clock
 954:Drivers/STM32F0xx_HAL_Driver/Src/stm32f0xx_hal_rcc.c ****   *            @arg @ref RCC_MCO1SOURCE_PLLCLK      PLLCLK selected as MCO clock
 955:Drivers/STM32F0xx_HAL_Driver/Src/stm32f0xx_hal_rcc.c ****   @elseif STM32F072xB
 956:Drivers/STM32F0xx_HAL_Driver/Src/stm32f0xx_hal_rcc.c ****   *            @arg @ref RCC_MCO1SOURCE_HSI48       HSI48 selected as MCO clock
 957:Drivers/STM32F0xx_HAL_Driver/Src/stm32f0xx_hal_rcc.c ****   *            @arg @ref RCC_MCO1SOURCE_PLLCLK      PLLCLK selected as MCO clock
 958:Drivers/STM32F0xx_HAL_Driver/Src/stm32f0xx_hal_rcc.c ****   @elseif STM32F078xx
 959:Drivers/STM32F0xx_HAL_Driver/Src/stm32f0xx_hal_rcc.c ****   *            @arg @ref RCC_MCO1SOURCE_HSI48       HSI48 selected as MCO clock
 960:Drivers/STM32F0xx_HAL_Driver/Src/stm32f0xx_hal_rcc.c ****   *            @arg @ref RCC_MCO1SOURCE_PLLCLK      PLLCLK selected as MCO clock
 961:Drivers/STM32F0xx_HAL_Driver/Src/stm32f0xx_hal_rcc.c ****   @elseif STM32F091xC
 962:Drivers/STM32F0xx_HAL_Driver/Src/stm32f0xx_hal_rcc.c ****   *            @arg @ref RCC_MCO1SOURCE_HSI48       HSI48 selected as MCO clock
 963:Drivers/STM32F0xx_HAL_Driver/Src/stm32f0xx_hal_rcc.c ****   *            @arg @ref RCC_MCO1SOURCE_PLLCLK      PLLCLK selected as MCO clock
 964:Drivers/STM32F0xx_HAL_Driver/Src/stm32f0xx_hal_rcc.c ****   @elseif STM32F098xx
 965:Drivers/STM32F0xx_HAL_Driver/Src/stm32f0xx_hal_rcc.c ****   *            @arg @ref RCC_MCO1SOURCE_HSI48       HSI48 selected as MCO clock
 966:Drivers/STM32F0xx_HAL_Driver/Src/stm32f0xx_hal_rcc.c ****   *            @arg @ref RCC_MCO1SOURCE_PLLCLK      PLLCLK selected as MCO clock
 967:Drivers/STM32F0xx_HAL_Driver/Src/stm32f0xx_hal_rcc.c ****   @elif STM32F030x6
 968:Drivers/STM32F0xx_HAL_Driver/Src/stm32f0xx_hal_rcc.c ****   *            @arg @ref RCC_MCO1SOURCE_PLLCLK      PLLCLK selected as MCO clock
 969:Drivers/STM32F0xx_HAL_Driver/Src/stm32f0xx_hal_rcc.c ****   @elif STM32F030xC
 970:Drivers/STM32F0xx_HAL_Driver/Src/stm32f0xx_hal_rcc.c ****   *            @arg @ref RCC_MCO1SOURCE_PLLCLK      PLLCLK selected as MCO clock
 971:Drivers/STM32F0xx_HAL_Driver/Src/stm32f0xx_hal_rcc.c ****   @elif STM32F031x6
 972:Drivers/STM32F0xx_HAL_Driver/Src/stm32f0xx_hal_rcc.c ****   *            @arg @ref RCC_MCO1SOURCE_PLLCLK      PLLCLK selected as MCO clock
 973:Drivers/STM32F0xx_HAL_Driver/Src/stm32f0xx_hal_rcc.c ****   @elif STM32F038xx
 974:Drivers/STM32F0xx_HAL_Driver/Src/stm32f0xx_hal_rcc.c ****   *            @arg @ref RCC_MCO1SOURCE_PLLCLK      PLLCLK selected as MCO clock
 975:Drivers/STM32F0xx_HAL_Driver/Src/stm32f0xx_hal_rcc.c ****   @elif STM32F070x6
 976:Drivers/STM32F0xx_HAL_Driver/Src/stm32f0xx_hal_rcc.c ****   *            @arg @ref RCC_MCO1SOURCE_PLLCLK      PLLCLK selected as MCO clock
 977:Drivers/STM32F0xx_HAL_Driver/Src/stm32f0xx_hal_rcc.c ****   @elif STM32F070xB
 978:Drivers/STM32F0xx_HAL_Driver/Src/stm32f0xx_hal_rcc.c ****   *            @arg @ref RCC_MCO1SOURCE_PLLCLK      PLLCLK selected as MCO clock
 979:Drivers/STM32F0xx_HAL_Driver/Src/stm32f0xx_hal_rcc.c ****   @endif
 980:Drivers/STM32F0xx_HAL_Driver/Src/stm32f0xx_hal_rcc.c ****   *            @arg @ref RCC_MCO1SOURCE_PLLCLK_DIV2 PLLCLK Divided by 2 selected as MCO clock
 981:Drivers/STM32F0xx_HAL_Driver/Src/stm32f0xx_hal_rcc.c ****   * @param  RCC_MCODiv specifies the MCO DIV.
 982:Drivers/STM32F0xx_HAL_Driver/Src/stm32f0xx_hal_rcc.c ****   *          This parameter can be one of the following values:
 983:Drivers/STM32F0xx_HAL_Driver/Src/stm32f0xx_hal_rcc.c ****   *            @arg @ref RCC_MCODIV_1   no division applied to MCO clock
 984:Drivers/STM32F0xx_HAL_Driver/Src/stm32f0xx_hal_rcc.c ****   *            @arg @ref RCC_MCODIV_2   division by 2 applied to MCO clock
 985:Drivers/STM32F0xx_HAL_Driver/Src/stm32f0xx_hal_rcc.c ****   *            @arg @ref RCC_MCODIV_4   division by 4 applied to MCO clock
 986:Drivers/STM32F0xx_HAL_Driver/Src/stm32f0xx_hal_rcc.c ****   *            @arg @ref RCC_MCODIV_8   division by 8 applied to MCO clock
 987:Drivers/STM32F0xx_HAL_Driver/Src/stm32f0xx_hal_rcc.c ****   *            @arg @ref RCC_MCODIV_16  division by 16 applied to MCO clock
 988:Drivers/STM32F0xx_HAL_Driver/Src/stm32f0xx_hal_rcc.c ****   *            @arg @ref RCC_MCODIV_32  division by 32 applied to MCO clock
 989:Drivers/STM32F0xx_HAL_Driver/Src/stm32f0xx_hal_rcc.c ****   *            @arg @ref RCC_MCODIV_64  division by 64 applied to MCO clock
 990:Drivers/STM32F0xx_HAL_Driver/Src/stm32f0xx_hal_rcc.c ****   *            @arg @ref RCC_MCODIV_128 division by 128 applied to MCO clock
 991:Drivers/STM32F0xx_HAL_Driver/Src/stm32f0xx_hal_rcc.c ****   * @retval None
ARM GAS  /tmp/ccAPLIyc.s 			page 44


 992:Drivers/STM32F0xx_HAL_Driver/Src/stm32f0xx_hal_rcc.c ****   */
 993:Drivers/STM32F0xx_HAL_Driver/Src/stm32f0xx_hal_rcc.c **** #else
 994:Drivers/STM32F0xx_HAL_Driver/Src/stm32f0xx_hal_rcc.c **** /**
 995:Drivers/STM32F0xx_HAL_Driver/Src/stm32f0xx_hal_rcc.c ****   * @brief  Selects the clock source to output on MCO pin.
 996:Drivers/STM32F0xx_HAL_Driver/Src/stm32f0xx_hal_rcc.c ****   * @note   MCO pin should be configured in alternate function mode.
 997:Drivers/STM32F0xx_HAL_Driver/Src/stm32f0xx_hal_rcc.c ****   * @param  RCC_MCOx specifies the output direction for the clock source.
 998:Drivers/STM32F0xx_HAL_Driver/Src/stm32f0xx_hal_rcc.c ****   *          This parameter can be one of the following values:
 999:Drivers/STM32F0xx_HAL_Driver/Src/stm32f0xx_hal_rcc.c ****   *            @arg @ref RCC_MCO1 Clock source to output on MCO1 pin(PA8).
1000:Drivers/STM32F0xx_HAL_Driver/Src/stm32f0xx_hal_rcc.c ****   * @param  RCC_MCOSource specifies the clock source to output.
1001:Drivers/STM32F0xx_HAL_Driver/Src/stm32f0xx_hal_rcc.c ****   *          This parameter can be one of the following values:
1002:Drivers/STM32F0xx_HAL_Driver/Src/stm32f0xx_hal_rcc.c ****   *            @arg @ref RCC_MCO1SOURCE_NOCLOCK     No clock selected as MCO clock
1003:Drivers/STM32F0xx_HAL_Driver/Src/stm32f0xx_hal_rcc.c ****   *            @arg @ref RCC_MCO1SOURCE_SYSCLK      System clock selected as MCO clock
1004:Drivers/STM32F0xx_HAL_Driver/Src/stm32f0xx_hal_rcc.c ****   *            @arg @ref RCC_MCO1SOURCE_HSI         HSI selected as MCO clock
1005:Drivers/STM32F0xx_HAL_Driver/Src/stm32f0xx_hal_rcc.c ****   *            @arg @ref RCC_MCO1SOURCE_HSE         HSE selected as MCO clock
1006:Drivers/STM32F0xx_HAL_Driver/Src/stm32f0xx_hal_rcc.c ****   *            @arg @ref RCC_MCO1SOURCE_LSI         LSI selected as MCO clock
1007:Drivers/STM32F0xx_HAL_Driver/Src/stm32f0xx_hal_rcc.c ****   *            @arg @ref RCC_MCO1SOURCE_LSE         LSE selected as MCO clock
1008:Drivers/STM32F0xx_HAL_Driver/Src/stm32f0xx_hal_rcc.c ****   *            @arg @ref RCC_MCO1SOURCE_HSI14       HSI14 selected as MCO clock
1009:Drivers/STM32F0xx_HAL_Driver/Src/stm32f0xx_hal_rcc.c ****   *            @arg @ref RCC_MCO1SOURCE_PLLCLK_DIV2 PLLCLK Divided by 2 selected as MCO clock
1010:Drivers/STM32F0xx_HAL_Driver/Src/stm32f0xx_hal_rcc.c ****   * @param  RCC_MCODiv specifies the MCO DIV.
1011:Drivers/STM32F0xx_HAL_Driver/Src/stm32f0xx_hal_rcc.c ****   *          This parameter can be one of the following values:
1012:Drivers/STM32F0xx_HAL_Driver/Src/stm32f0xx_hal_rcc.c ****   *            @arg @ref RCC_MCODIV_1 no division applied to MCO clock
1013:Drivers/STM32F0xx_HAL_Driver/Src/stm32f0xx_hal_rcc.c ****   * @retval None
1014:Drivers/STM32F0xx_HAL_Driver/Src/stm32f0xx_hal_rcc.c ****   */
1015:Drivers/STM32F0xx_HAL_Driver/Src/stm32f0xx_hal_rcc.c **** #endif
1016:Drivers/STM32F0xx_HAL_Driver/Src/stm32f0xx_hal_rcc.c **** void HAL_RCC_MCOConfig(uint32_t RCC_MCOx, uint32_t RCC_MCOSource, uint32_t RCC_MCODiv)
1017:Drivers/STM32F0xx_HAL_Driver/Src/stm32f0xx_hal_rcc.c **** {
 1268              		.loc 1 1017 1 is_stmt 1 view -0
 1269              		.cfi_startproc
 1270              		@ args = 0, pretend = 0, frame = 24
 1271              		@ frame_needed = 0, uses_anonymous_args = 0
 1272              		.loc 1 1017 1 is_stmt 0 view .LVU375
 1273 0000 30B5     		push	{r4, r5, lr}
 1274              	.LCFI3:
 1275              		.cfi_def_cfa_offset 12
 1276              		.cfi_offset 4, -12
 1277              		.cfi_offset 5, -8
 1278              		.cfi_offset 14, -4
 1279 0002 87B0     		sub	sp, sp, #28
 1280              	.LCFI4:
 1281              		.cfi_def_cfa_offset 40
 1282 0004 0D00     		movs	r5, r1
1018:Drivers/STM32F0xx_HAL_Driver/Src/stm32f0xx_hal_rcc.c ****   GPIO_InitTypeDef gpio;
 1283              		.loc 1 1018 3 is_stmt 1 view .LVU376
1019:Drivers/STM32F0xx_HAL_Driver/Src/stm32f0xx_hal_rcc.c **** 
1020:Drivers/STM32F0xx_HAL_Driver/Src/stm32f0xx_hal_rcc.c ****   /* Check the parameters */
1021:Drivers/STM32F0xx_HAL_Driver/Src/stm32f0xx_hal_rcc.c ****   assert_param(IS_RCC_MCO(RCC_MCOx));
 1284              		.loc 1 1021 3 view .LVU377
1022:Drivers/STM32F0xx_HAL_Driver/Src/stm32f0xx_hal_rcc.c ****   assert_param(IS_RCC_MCODIV(RCC_MCODiv));
 1285              		.loc 1 1022 3 view .LVU378
1023:Drivers/STM32F0xx_HAL_Driver/Src/stm32f0xx_hal_rcc.c ****   assert_param(IS_RCC_MCO1SOURCE(RCC_MCOSource));
 1286              		.loc 1 1023 3 view .LVU379
1024:Drivers/STM32F0xx_HAL_Driver/Src/stm32f0xx_hal_rcc.c ****   
1025:Drivers/STM32F0xx_HAL_Driver/Src/stm32f0xx_hal_rcc.c ****   /* Configure the MCO1 pin in alternate function mode */
1026:Drivers/STM32F0xx_HAL_Driver/Src/stm32f0xx_hal_rcc.c ****   gpio.Mode      = GPIO_MODE_AF_PP;
 1287              		.loc 1 1026 3 view .LVU380
 1288              		.loc 1 1026 18 is_stmt 0 view .LVU381
 1289 0006 0223     		movs	r3, #2
ARM GAS  /tmp/ccAPLIyc.s 			page 45


 1290 0008 0293     		str	r3, [sp, #8]
1027:Drivers/STM32F0xx_HAL_Driver/Src/stm32f0xx_hal_rcc.c ****   gpio.Speed     = GPIO_SPEED_FREQ_HIGH;
 1291              		.loc 1 1027 3 is_stmt 1 view .LVU382
 1292              		.loc 1 1027 18 is_stmt 0 view .LVU383
 1293 000a 0133     		adds	r3, r3, #1
 1294 000c 0493     		str	r3, [sp, #16]
1028:Drivers/STM32F0xx_HAL_Driver/Src/stm32f0xx_hal_rcc.c ****   gpio.Pull      = GPIO_NOPULL;
 1295              		.loc 1 1028 3 is_stmt 1 view .LVU384
 1296              		.loc 1 1028 18 is_stmt 0 view .LVU385
 1297 000e 0023     		movs	r3, #0
 1298 0010 0393     		str	r3, [sp, #12]
1029:Drivers/STM32F0xx_HAL_Driver/Src/stm32f0xx_hal_rcc.c ****   gpio.Pin       = MCO1_PIN;
 1299              		.loc 1 1029 3 is_stmt 1 view .LVU386
 1300              		.loc 1 1029 18 is_stmt 0 view .LVU387
 1301 0012 8022     		movs	r2, #128
 1302              	.LVL89:
 1303              		.loc 1 1029 18 view .LVU388
 1304 0014 5200     		lsls	r2, r2, #1
 1305 0016 0192     		str	r2, [sp, #4]
1030:Drivers/STM32F0xx_HAL_Driver/Src/stm32f0xx_hal_rcc.c ****   gpio.Alternate = GPIO_AF0_MCO;
 1306              		.loc 1 1030 3 is_stmt 1 view .LVU389
 1307              		.loc 1 1030 18 is_stmt 0 view .LVU390
 1308 0018 0593     		str	r3, [sp, #20]
1031:Drivers/STM32F0xx_HAL_Driver/Src/stm32f0xx_hal_rcc.c **** 
1032:Drivers/STM32F0xx_HAL_Driver/Src/stm32f0xx_hal_rcc.c ****   /* MCO1 Clock Enable */
1033:Drivers/STM32F0xx_HAL_Driver/Src/stm32f0xx_hal_rcc.c ****   MCO1_CLK_ENABLE();
 1309              		.loc 1 1033 3 is_stmt 1 view .LVU391
 1310              	.LBB5:
 1311              		.loc 1 1033 3 view .LVU392
 1312              		.loc 1 1033 3 view .LVU393
 1313 001a 0B4C     		ldr	r4, .L122
 1314 001c 6269     		ldr	r2, [r4, #20]
 1315 001e 8021     		movs	r1, #128
 1316              	.LVL90:
 1317              		.loc 1 1033 3 is_stmt 0 view .LVU394
 1318 0020 8902     		lsls	r1, r1, #10
 1319 0022 0A43     		orrs	r2, r1
 1320 0024 6261     		str	r2, [r4, #20]
 1321              		.loc 1 1033 3 is_stmt 1 view .LVU395
 1322 0026 6369     		ldr	r3, [r4, #20]
 1323 0028 0B40     		ands	r3, r1
 1324 002a 0093     		str	r3, [sp]
 1325              		.loc 1 1033 3 view .LVU396
 1326 002c 009B     		ldr	r3, [sp]
 1327              	.LBE5:
 1328              		.loc 1 1033 3 view .LVU397
1034:Drivers/STM32F0xx_HAL_Driver/Src/stm32f0xx_hal_rcc.c ****   
1035:Drivers/STM32F0xx_HAL_Driver/Src/stm32f0xx_hal_rcc.c ****   HAL_GPIO_Init(MCO1_GPIO_PORT, &gpio);
 1329              		.loc 1 1035 3 view .LVU398
 1330 002e 9020     		movs	r0, #144
 1331              	.LVL91:
 1332              		.loc 1 1035 3 is_stmt 0 view .LVU399
 1333 0030 01A9     		add	r1, sp, #4
 1334 0032 C005     		lsls	r0, r0, #23
 1335 0034 FFF7FEFF 		bl	HAL_GPIO_Init
 1336              	.LVL92:
1036:Drivers/STM32F0xx_HAL_Driver/Src/stm32f0xx_hal_rcc.c ****   
ARM GAS  /tmp/ccAPLIyc.s 			page 46


1037:Drivers/STM32F0xx_HAL_Driver/Src/stm32f0xx_hal_rcc.c ****   /* Configure the MCO clock source */
1038:Drivers/STM32F0xx_HAL_Driver/Src/stm32f0xx_hal_rcc.c ****   __HAL_RCC_MCO1_CONFIG(RCC_MCOSource, RCC_MCODiv);
 1337              		.loc 1 1038 3 is_stmt 1 view .LVU400
 1338 0038 6168     		ldr	r1, [r4, #4]
 1339 003a 044B     		ldr	r3, .L122+4
 1340 003c 1940     		ands	r1, r3
 1341 003e 2943     		orrs	r1, r5
 1342 0040 6160     		str	r1, [r4, #4]
1039:Drivers/STM32F0xx_HAL_Driver/Src/stm32f0xx_hal_rcc.c **** }
 1343              		.loc 1 1039 1 is_stmt 0 view .LVU401
 1344 0042 07B0     		add	sp, sp, #28
 1345              		@ sp needed
 1346              	.LVL93:
 1347              		.loc 1 1039 1 view .LVU402
 1348 0044 30BD     		pop	{r4, r5, pc}
 1349              	.L123:
 1350 0046 C046     		.align	2
 1351              	.L122:
 1352 0048 00100240 		.word	1073876992
 1353 004c FFFFFFF0 		.word	-251658241
 1354              		.cfi_endproc
 1355              	.LFE43:
 1357              		.section	.text.HAL_RCC_EnableCSS,"ax",%progbits
 1358              		.align	1
 1359              		.global	HAL_RCC_EnableCSS
 1360              		.syntax unified
 1361              		.code	16
 1362              		.thumb_func
 1363              		.fpu softvfp
 1365              	HAL_RCC_EnableCSS:
 1366              	.LFB44:
1040:Drivers/STM32F0xx_HAL_Driver/Src/stm32f0xx_hal_rcc.c **** 
1041:Drivers/STM32F0xx_HAL_Driver/Src/stm32f0xx_hal_rcc.c **** /**
1042:Drivers/STM32F0xx_HAL_Driver/Src/stm32f0xx_hal_rcc.c ****   * @brief  Enables the Clock Security System.
1043:Drivers/STM32F0xx_HAL_Driver/Src/stm32f0xx_hal_rcc.c ****   * @note   If a failure is detected on the HSE oscillator clock, this oscillator
1044:Drivers/STM32F0xx_HAL_Driver/Src/stm32f0xx_hal_rcc.c ****   *         is automatically disabled and an interrupt is generated to inform the
1045:Drivers/STM32F0xx_HAL_Driver/Src/stm32f0xx_hal_rcc.c ****   *         software about the failure (Clock Security System Interrupt, CSSI),
1046:Drivers/STM32F0xx_HAL_Driver/Src/stm32f0xx_hal_rcc.c ****   *         allowing the MCU to perform rescue operations. The CSSI is linked to 
1047:Drivers/STM32F0xx_HAL_Driver/Src/stm32f0xx_hal_rcc.c ****   *         the Cortex-M0 NMI (Non-Maskable Interrupt) exception vector.  
1048:Drivers/STM32F0xx_HAL_Driver/Src/stm32f0xx_hal_rcc.c ****   * @retval None
1049:Drivers/STM32F0xx_HAL_Driver/Src/stm32f0xx_hal_rcc.c ****   */
1050:Drivers/STM32F0xx_HAL_Driver/Src/stm32f0xx_hal_rcc.c **** void HAL_RCC_EnableCSS(void)
1051:Drivers/STM32F0xx_HAL_Driver/Src/stm32f0xx_hal_rcc.c **** {
 1367              		.loc 1 1051 1 is_stmt 1 view -0
 1368              		.cfi_startproc
 1369              		@ args = 0, pretend = 0, frame = 0
 1370              		@ frame_needed = 0, uses_anonymous_args = 0
 1371              		@ link register save eliminated.
1052:Drivers/STM32F0xx_HAL_Driver/Src/stm32f0xx_hal_rcc.c ****   SET_BIT(RCC->CR, RCC_CR_CSSON) ;
 1372              		.loc 1 1052 3 view .LVU404
 1373 0000 034A     		ldr	r2, .L125
 1374 0002 1168     		ldr	r1, [r2]
 1375 0004 8023     		movs	r3, #128
 1376 0006 1B03     		lsls	r3, r3, #12
 1377 0008 0B43     		orrs	r3, r1
 1378 000a 1360     		str	r3, [r2]
1053:Drivers/STM32F0xx_HAL_Driver/Src/stm32f0xx_hal_rcc.c **** }
ARM GAS  /tmp/ccAPLIyc.s 			page 47


 1379              		.loc 1 1053 1 is_stmt 0 view .LVU405
 1380              		@ sp needed
 1381 000c 7047     		bx	lr
 1382              	.L126:
 1383 000e C046     		.align	2
 1384              	.L125:
 1385 0010 00100240 		.word	1073876992
 1386              		.cfi_endproc
 1387              	.LFE44:
 1389              		.section	.text.HAL_RCC_DisableCSS,"ax",%progbits
 1390              		.align	1
 1391              		.global	HAL_RCC_DisableCSS
 1392              		.syntax unified
 1393              		.code	16
 1394              		.thumb_func
 1395              		.fpu softvfp
 1397              	HAL_RCC_DisableCSS:
 1398              	.LFB45:
1054:Drivers/STM32F0xx_HAL_Driver/Src/stm32f0xx_hal_rcc.c **** 
1055:Drivers/STM32F0xx_HAL_Driver/Src/stm32f0xx_hal_rcc.c **** /**
1056:Drivers/STM32F0xx_HAL_Driver/Src/stm32f0xx_hal_rcc.c ****   * @brief  Disables the Clock Security System.
1057:Drivers/STM32F0xx_HAL_Driver/Src/stm32f0xx_hal_rcc.c ****   * @retval None
1058:Drivers/STM32F0xx_HAL_Driver/Src/stm32f0xx_hal_rcc.c ****   */
1059:Drivers/STM32F0xx_HAL_Driver/Src/stm32f0xx_hal_rcc.c **** void HAL_RCC_DisableCSS(void)
1060:Drivers/STM32F0xx_HAL_Driver/Src/stm32f0xx_hal_rcc.c **** {
 1399              		.loc 1 1060 1 is_stmt 1 view -0
 1400              		.cfi_startproc
 1401              		@ args = 0, pretend = 0, frame = 0
 1402              		@ frame_needed = 0, uses_anonymous_args = 0
 1403              		@ link register save eliminated.
1061:Drivers/STM32F0xx_HAL_Driver/Src/stm32f0xx_hal_rcc.c ****   CLEAR_BIT(RCC->CR, RCC_CR_CSSON) ;
 1404              		.loc 1 1061 3 view .LVU407
 1405 0000 024A     		ldr	r2, .L128
 1406 0002 1368     		ldr	r3, [r2]
 1407 0004 0249     		ldr	r1, .L128+4
 1408 0006 0B40     		ands	r3, r1
 1409 0008 1360     		str	r3, [r2]
1062:Drivers/STM32F0xx_HAL_Driver/Src/stm32f0xx_hal_rcc.c **** }
 1410              		.loc 1 1062 1 is_stmt 0 view .LVU408
 1411              		@ sp needed
 1412 000a 7047     		bx	lr
 1413              	.L129:
 1414              		.align	2
 1415              	.L128:
 1416 000c 00100240 		.word	1073876992
 1417 0010 FFFFF7FF 		.word	-524289
 1418              		.cfi_endproc
 1419              	.LFE45:
 1421              		.global	__aeabi_uidiv
 1422              		.section	.text.HAL_RCC_GetSysClockFreq,"ax",%progbits
 1423              		.align	1
 1424              		.global	HAL_RCC_GetSysClockFreq
 1425              		.syntax unified
 1426              		.code	16
 1427              		.thumb_func
 1428              		.fpu softvfp
 1430              	HAL_RCC_GetSysClockFreq:
ARM GAS  /tmp/ccAPLIyc.s 			page 48


 1431              	.LFB46:
1063:Drivers/STM32F0xx_HAL_Driver/Src/stm32f0xx_hal_rcc.c **** 
1064:Drivers/STM32F0xx_HAL_Driver/Src/stm32f0xx_hal_rcc.c **** /**
1065:Drivers/STM32F0xx_HAL_Driver/Src/stm32f0xx_hal_rcc.c ****   * @brief  Returns the SYSCLK frequency     
1066:Drivers/STM32F0xx_HAL_Driver/Src/stm32f0xx_hal_rcc.c ****   * @note   The system frequency computed by this function is not the real 
1067:Drivers/STM32F0xx_HAL_Driver/Src/stm32f0xx_hal_rcc.c ****   *         frequency in the chip. It is calculated based on the predefined 
1068:Drivers/STM32F0xx_HAL_Driver/Src/stm32f0xx_hal_rcc.c ****   *         constant and the selected clock source:
1069:Drivers/STM32F0xx_HAL_Driver/Src/stm32f0xx_hal_rcc.c ****   * @note     If SYSCLK source is HSI, function returns values based on HSI_VALUE(*)
1070:Drivers/STM32F0xx_HAL_Driver/Src/stm32f0xx_hal_rcc.c ****   * @note     If SYSCLK source is HSE, function returns a value based on HSE_VALUE
1071:Drivers/STM32F0xx_HAL_Driver/Src/stm32f0xx_hal_rcc.c ****   *           divided by PREDIV factor(**)
1072:Drivers/STM32F0xx_HAL_Driver/Src/stm32f0xx_hal_rcc.c ****   * @note     If SYSCLK source is PLL, function returns a value based on HSE_VALUE
1073:Drivers/STM32F0xx_HAL_Driver/Src/stm32f0xx_hal_rcc.c ****   *           divided by PREDIV factor(**) or depending on STM32F0xxxx devices either a value based
1074:Drivers/STM32F0xx_HAL_Driver/Src/stm32f0xx_hal_rcc.c ****   *           on HSI_VALUE divided by 2 or HSI_VALUE divided by PREDIV factor(*) multiplied by the 
1075:Drivers/STM32F0xx_HAL_Driver/Src/stm32f0xx_hal_rcc.c ****   *           PLL factor.
1076:Drivers/STM32F0xx_HAL_Driver/Src/stm32f0xx_hal_rcc.c ****   * @note     (*) HSI_VALUE is a constant defined in stm32f0xx_hal_conf.h file (default value
1077:Drivers/STM32F0xx_HAL_Driver/Src/stm32f0xx_hal_rcc.c ****   *               8 MHz) but the real value may vary depending on the variations
1078:Drivers/STM32F0xx_HAL_Driver/Src/stm32f0xx_hal_rcc.c ****   *               in voltage and temperature.
1079:Drivers/STM32F0xx_HAL_Driver/Src/stm32f0xx_hal_rcc.c ****   * @note     (**) HSE_VALUE is a constant defined in stm32f0xx_hal_conf.h file (default value
1080:Drivers/STM32F0xx_HAL_Driver/Src/stm32f0xx_hal_rcc.c ****   *                8 MHz), user has to ensure that HSE_VALUE is same as the real
1081:Drivers/STM32F0xx_HAL_Driver/Src/stm32f0xx_hal_rcc.c ****   *                frequency of the crystal used. Otherwise, this function may
1082:Drivers/STM32F0xx_HAL_Driver/Src/stm32f0xx_hal_rcc.c ****   *                have wrong result.
1083:Drivers/STM32F0xx_HAL_Driver/Src/stm32f0xx_hal_rcc.c ****   *                  
1084:Drivers/STM32F0xx_HAL_Driver/Src/stm32f0xx_hal_rcc.c ****   * @note   The result of this function could be not correct when using fractional
1085:Drivers/STM32F0xx_HAL_Driver/Src/stm32f0xx_hal_rcc.c ****   *         value for HSE crystal.
1086:Drivers/STM32F0xx_HAL_Driver/Src/stm32f0xx_hal_rcc.c ****   *           
1087:Drivers/STM32F0xx_HAL_Driver/Src/stm32f0xx_hal_rcc.c ****   * @note   This function can be used by the user application to compute the 
1088:Drivers/STM32F0xx_HAL_Driver/Src/stm32f0xx_hal_rcc.c ****   *         baud-rate for the communication peripherals or configure other parameters.
1089:Drivers/STM32F0xx_HAL_Driver/Src/stm32f0xx_hal_rcc.c ****   *           
1090:Drivers/STM32F0xx_HAL_Driver/Src/stm32f0xx_hal_rcc.c ****   * @note   Each time SYSCLK changes, this function must be called to update the
1091:Drivers/STM32F0xx_HAL_Driver/Src/stm32f0xx_hal_rcc.c ****   *         right SYSCLK value. Otherwise, any configuration based on this function will be incorre
1092:Drivers/STM32F0xx_HAL_Driver/Src/stm32f0xx_hal_rcc.c ****   *         
1093:Drivers/STM32F0xx_HAL_Driver/Src/stm32f0xx_hal_rcc.c ****   * @retval SYSCLK frequency
1094:Drivers/STM32F0xx_HAL_Driver/Src/stm32f0xx_hal_rcc.c ****   */
1095:Drivers/STM32F0xx_HAL_Driver/Src/stm32f0xx_hal_rcc.c **** uint32_t HAL_RCC_GetSysClockFreq(void)
1096:Drivers/STM32F0xx_HAL_Driver/Src/stm32f0xx_hal_rcc.c **** {
 1432              		.loc 1 1096 1 is_stmt 1 view -0
 1433              		.cfi_startproc
 1434              		@ args = 0, pretend = 0, frame = 0
 1435              		@ frame_needed = 0, uses_anonymous_args = 0
 1436 0000 10B5     		push	{r4, lr}
 1437              	.LCFI5:
 1438              		.cfi_def_cfa_offset 8
 1439              		.cfi_offset 4, -8
 1440              		.cfi_offset 14, -4
1097:Drivers/STM32F0xx_HAL_Driver/Src/stm32f0xx_hal_rcc.c ****   static const uint8_t aPLLMULFactorTable[16U] = { 2U,  3U,  4U,  5U,  6U,  7U,  8U,  9U,
 1441              		.loc 1 1097 3 view .LVU410
1098:Drivers/STM32F0xx_HAL_Driver/Src/stm32f0xx_hal_rcc.c ****                                                    10U, 11U, 12U, 13U, 14U, 15U, 16U, 16U};
1099:Drivers/STM32F0xx_HAL_Driver/Src/stm32f0xx_hal_rcc.c ****   static const uint8_t aPredivFactorTable[16U] = { 1U, 2U,  3U,  4U,  5U,  6U,  7U,  8U,
 1442              		.loc 1 1099 3 view .LVU411
1100:Drivers/STM32F0xx_HAL_Driver/Src/stm32f0xx_hal_rcc.c ****                                                    9U,10U, 11U, 12U, 13U, 14U, 15U, 16U};
1101:Drivers/STM32F0xx_HAL_Driver/Src/stm32f0xx_hal_rcc.c **** 
1102:Drivers/STM32F0xx_HAL_Driver/Src/stm32f0xx_hal_rcc.c ****   uint32_t tmpreg = 0U, prediv = 0U, pllclk = 0U, pllmul = 0U;
 1443              		.loc 1 1102 3 view .LVU412
 1444              	.LVL94:
1103:Drivers/STM32F0xx_HAL_Driver/Src/stm32f0xx_hal_rcc.c ****   uint32_t sysclockfreq = 0U;
 1445              		.loc 1 1103 3 view .LVU413
1104:Drivers/STM32F0xx_HAL_Driver/Src/stm32f0xx_hal_rcc.c ****   
ARM GAS  /tmp/ccAPLIyc.s 			page 49


1105:Drivers/STM32F0xx_HAL_Driver/Src/stm32f0xx_hal_rcc.c ****   tmpreg = RCC->CFGR;
 1446              		.loc 1 1105 3 view .LVU414
 1447              		.loc 1 1105 10 is_stmt 0 view .LVU415
 1448 0002 104B     		ldr	r3, .L135
 1449 0004 5A68     		ldr	r2, [r3, #4]
 1450              	.LVL95:
1106:Drivers/STM32F0xx_HAL_Driver/Src/stm32f0xx_hal_rcc.c ****   
1107:Drivers/STM32F0xx_HAL_Driver/Src/stm32f0xx_hal_rcc.c ****   /* Get SYSCLK source -------------------------------------------------------*/
1108:Drivers/STM32F0xx_HAL_Driver/Src/stm32f0xx_hal_rcc.c ****   switch (tmpreg & RCC_CFGR_SWS)
 1451              		.loc 1 1108 3 is_stmt 1 view .LVU416
 1452              		.loc 1 1108 18 is_stmt 0 view .LVU417
 1453 0006 0C23     		movs	r3, #12
 1454 0008 1340     		ands	r3, r2
 1455              		.loc 1 1108 3 view .LVU418
 1456 000a 082B     		cmp	r3, #8
 1457 000c 01D0     		beq	.L134
1109:Drivers/STM32F0xx_HAL_Driver/Src/stm32f0xx_hal_rcc.c ****   {
1110:Drivers/STM32F0xx_HAL_Driver/Src/stm32f0xx_hal_rcc.c ****     case RCC_SYSCLKSOURCE_STATUS_HSE:  /* HSE used as system clock */
1111:Drivers/STM32F0xx_HAL_Driver/Src/stm32f0xx_hal_rcc.c ****     {
1112:Drivers/STM32F0xx_HAL_Driver/Src/stm32f0xx_hal_rcc.c ****       sysclockfreq = HSE_VALUE;
 1458              		.loc 1 1112 20 view .LVU419
 1459 000e 0E48     		ldr	r0, .L135+4
 1460              	.LVL96:
1113:Drivers/STM32F0xx_HAL_Driver/Src/stm32f0xx_hal_rcc.c ****       break;
1114:Drivers/STM32F0xx_HAL_Driver/Src/stm32f0xx_hal_rcc.c ****     }
1115:Drivers/STM32F0xx_HAL_Driver/Src/stm32f0xx_hal_rcc.c ****     case RCC_SYSCLKSOURCE_STATUS_PLLCLK:  /* PLL used as system clock */
1116:Drivers/STM32F0xx_HAL_Driver/Src/stm32f0xx_hal_rcc.c ****     {
1117:Drivers/STM32F0xx_HAL_Driver/Src/stm32f0xx_hal_rcc.c ****       pllmul = aPLLMULFactorTable[(uint32_t)(tmpreg & RCC_CFGR_PLLMUL) >> RCC_CFGR_PLLMUL_BITNUMBER
1118:Drivers/STM32F0xx_HAL_Driver/Src/stm32f0xx_hal_rcc.c ****       prediv = aPredivFactorTable[(uint32_t)(RCC->CFGR2 & RCC_CFGR2_PREDIV) >> RCC_CFGR2_PREDIV_BIT
1119:Drivers/STM32F0xx_HAL_Driver/Src/stm32f0xx_hal_rcc.c ****       if ((tmpreg & RCC_CFGR_PLLSRC) == RCC_PLLSOURCE_HSE)
1120:Drivers/STM32F0xx_HAL_Driver/Src/stm32f0xx_hal_rcc.c ****       {
1121:Drivers/STM32F0xx_HAL_Driver/Src/stm32f0xx_hal_rcc.c ****         /* HSE used as PLL clock source : PLLCLK = HSE/PREDIV * PLLMUL */
1122:Drivers/STM32F0xx_HAL_Driver/Src/stm32f0xx_hal_rcc.c ****         pllclk = (uint32_t)((uint64_t) HSE_VALUE / (uint64_t) (prediv)) * ((uint64_t) pllmul);
1123:Drivers/STM32F0xx_HAL_Driver/Src/stm32f0xx_hal_rcc.c ****       }
1124:Drivers/STM32F0xx_HAL_Driver/Src/stm32f0xx_hal_rcc.c **** #if defined(RCC_CFGR_PLLSRC_HSI48_PREDIV)
1125:Drivers/STM32F0xx_HAL_Driver/Src/stm32f0xx_hal_rcc.c ****       else if ((tmpreg & RCC_CFGR_PLLSRC) == RCC_PLLSOURCE_HSI48)
1126:Drivers/STM32F0xx_HAL_Driver/Src/stm32f0xx_hal_rcc.c ****       {
1127:Drivers/STM32F0xx_HAL_Driver/Src/stm32f0xx_hal_rcc.c ****         /* HSI48 used as PLL clock source : PLLCLK = HSI48/PREDIV * PLLMUL */
1128:Drivers/STM32F0xx_HAL_Driver/Src/stm32f0xx_hal_rcc.c ****         pllclk = (uint32_t)((uint64_t) HSI48_VALUE / (uint64_t) (prediv)) * ((uint64_t) pllmul);
1129:Drivers/STM32F0xx_HAL_Driver/Src/stm32f0xx_hal_rcc.c ****       }
1130:Drivers/STM32F0xx_HAL_Driver/Src/stm32f0xx_hal_rcc.c **** #endif /* RCC_CFGR_PLLSRC_HSI48_PREDIV */
1131:Drivers/STM32F0xx_HAL_Driver/Src/stm32f0xx_hal_rcc.c ****       else
1132:Drivers/STM32F0xx_HAL_Driver/Src/stm32f0xx_hal_rcc.c ****       {
1133:Drivers/STM32F0xx_HAL_Driver/Src/stm32f0xx_hal_rcc.c **** #if  (defined(STM32F042x6) || defined(STM32F048xx) || defined(STM32F070x6) || defined(STM32F071xB) 
1134:Drivers/STM32F0xx_HAL_Driver/Src/stm32f0xx_hal_rcc.c ****         /* HSI used as PLL clock source : PLLCLK = HSI/PREDIV * PLLMUL */
1135:Drivers/STM32F0xx_HAL_Driver/Src/stm32f0xx_hal_rcc.c ****         pllclk = (uint32_t)((uint64_t) HSI_VALUE / (uint64_t) (prediv)) * ((uint64_t) pllmul);
1136:Drivers/STM32F0xx_HAL_Driver/Src/stm32f0xx_hal_rcc.c **** #else
1137:Drivers/STM32F0xx_HAL_Driver/Src/stm32f0xx_hal_rcc.c ****         /* HSI used as PLL clock source : PLLCLK = HSI/2 * PLLMUL */
1138:Drivers/STM32F0xx_HAL_Driver/Src/stm32f0xx_hal_rcc.c ****         pllclk = (uint32_t)((uint64_t) (HSI_VALUE >> 1U) * ((uint64_t) pllmul));
1139:Drivers/STM32F0xx_HAL_Driver/Src/stm32f0xx_hal_rcc.c **** #endif
1140:Drivers/STM32F0xx_HAL_Driver/Src/stm32f0xx_hal_rcc.c ****       }
1141:Drivers/STM32F0xx_HAL_Driver/Src/stm32f0xx_hal_rcc.c ****       sysclockfreq = pllclk;
1142:Drivers/STM32F0xx_HAL_Driver/Src/stm32f0xx_hal_rcc.c ****       break;
1143:Drivers/STM32F0xx_HAL_Driver/Src/stm32f0xx_hal_rcc.c ****     }
1144:Drivers/STM32F0xx_HAL_Driver/Src/stm32f0xx_hal_rcc.c **** #if defined(RCC_CFGR_SWS_HSI48)
1145:Drivers/STM32F0xx_HAL_Driver/Src/stm32f0xx_hal_rcc.c ****     case RCC_SYSCLKSOURCE_STATUS_HSI48:    /* HSI48 used as system clock source */
1146:Drivers/STM32F0xx_HAL_Driver/Src/stm32f0xx_hal_rcc.c ****     {
ARM GAS  /tmp/ccAPLIyc.s 			page 50


1147:Drivers/STM32F0xx_HAL_Driver/Src/stm32f0xx_hal_rcc.c ****       sysclockfreq = HSI48_VALUE;
1148:Drivers/STM32F0xx_HAL_Driver/Src/stm32f0xx_hal_rcc.c ****       break;
1149:Drivers/STM32F0xx_HAL_Driver/Src/stm32f0xx_hal_rcc.c ****     }
1150:Drivers/STM32F0xx_HAL_Driver/Src/stm32f0xx_hal_rcc.c **** #endif /* RCC_CFGR_SWS_HSI48 */
1151:Drivers/STM32F0xx_HAL_Driver/Src/stm32f0xx_hal_rcc.c ****     case RCC_SYSCLKSOURCE_STATUS_HSI:  /* HSI used as system clock source */
1152:Drivers/STM32F0xx_HAL_Driver/Src/stm32f0xx_hal_rcc.c ****     default: /* HSI used as system clock */
1153:Drivers/STM32F0xx_HAL_Driver/Src/stm32f0xx_hal_rcc.c ****     {
1154:Drivers/STM32F0xx_HAL_Driver/Src/stm32f0xx_hal_rcc.c ****       sysclockfreq = HSI_VALUE;
1155:Drivers/STM32F0xx_HAL_Driver/Src/stm32f0xx_hal_rcc.c ****       break;
1156:Drivers/STM32F0xx_HAL_Driver/Src/stm32f0xx_hal_rcc.c ****     }
1157:Drivers/STM32F0xx_HAL_Driver/Src/stm32f0xx_hal_rcc.c ****   }
1158:Drivers/STM32F0xx_HAL_Driver/Src/stm32f0xx_hal_rcc.c ****   return sysclockfreq;
 1461              		.loc 1 1158 3 is_stmt 1 view .LVU420
 1462              	.L130:
1159:Drivers/STM32F0xx_HAL_Driver/Src/stm32f0xx_hal_rcc.c **** }
 1463              		.loc 1 1159 1 is_stmt 0 view .LVU421
 1464              		@ sp needed
 1465 0010 10BD     		pop	{r4, pc}
 1466              	.LVL97:
 1467              	.L134:
1117:Drivers/STM32F0xx_HAL_Driver/Src/stm32f0xx_hal_rcc.c ****       prediv = aPredivFactorTable[(uint32_t)(RCC->CFGR2 & RCC_CFGR2_PREDIV) >> RCC_CFGR2_PREDIV_BIT
 1468              		.loc 1 1117 7 is_stmt 1 view .LVU422
1117:Drivers/STM32F0xx_HAL_Driver/Src/stm32f0xx_hal_rcc.c ****       prediv = aPredivFactorTable[(uint32_t)(RCC->CFGR2 & RCC_CFGR2_PREDIV) >> RCC_CFGR2_PREDIV_BIT
 1469              		.loc 1 1117 72 is_stmt 0 view .LVU423
 1470 0012 910C     		lsrs	r1, r2, #18
 1471 0014 0733     		adds	r3, r3, #7
 1472 0016 1940     		ands	r1, r3
1117:Drivers/STM32F0xx_HAL_Driver/Src/stm32f0xx_hal_rcc.c ****       prediv = aPredivFactorTable[(uint32_t)(RCC->CFGR2 & RCC_CFGR2_PREDIV) >> RCC_CFGR2_PREDIV_BIT
 1473              		.loc 1 1117 34 view .LVU424
 1474 0018 0C48     		ldr	r0, .L135+8
 1475 001a 445C     		ldrb	r4, [r0, r1]
 1476              	.LVL98:
1118:Drivers/STM32F0xx_HAL_Driver/Src/stm32f0xx_hal_rcc.c ****       if ((tmpreg & RCC_CFGR_PLLSRC) == RCC_PLLSOURCE_HSE)
 1477              		.loc 1 1118 7 is_stmt 1 view .LVU425
1118:Drivers/STM32F0xx_HAL_Driver/Src/stm32f0xx_hal_rcc.c ****       if ((tmpreg & RCC_CFGR_PLLSRC) == RCC_PLLSOURCE_HSE)
 1478              		.loc 1 1118 49 is_stmt 0 view .LVU426
 1479 001c 0949     		ldr	r1, .L135
 1480 001e C96A     		ldr	r1, [r1, #44]
1118:Drivers/STM32F0xx_HAL_Driver/Src/stm32f0xx_hal_rcc.c ****       if ((tmpreg & RCC_CFGR_PLLSRC) == RCC_PLLSOURCE_HSE)
 1481              		.loc 1 1118 77 view .LVU427
 1482 0020 0B40     		ands	r3, r1
1118:Drivers/STM32F0xx_HAL_Driver/Src/stm32f0xx_hal_rcc.c ****       if ((tmpreg & RCC_CFGR_PLLSRC) == RCC_PLLSOURCE_HSE)
 1483              		.loc 1 1118 34 view .LVU428
 1484 0022 0B49     		ldr	r1, .L135+12
 1485 0024 C95C     		ldrb	r1, [r1, r3]
 1486              	.LVL99:
1119:Drivers/STM32F0xx_HAL_Driver/Src/stm32f0xx_hal_rcc.c ****       {
 1487              		.loc 1 1119 7 is_stmt 1 view .LVU429
1119:Drivers/STM32F0xx_HAL_Driver/Src/stm32f0xx_hal_rcc.c ****       {
 1488              		.loc 1 1119 10 is_stmt 0 view .LVU430
 1489 0026 D303     		lsls	r3, r2, #15
 1490 0028 04D5     		bpl	.L132
1122:Drivers/STM32F0xx_HAL_Driver/Src/stm32f0xx_hal_rcc.c ****       }
 1491              		.loc 1 1122 9 is_stmt 1 view .LVU431
1122:Drivers/STM32F0xx_HAL_Driver/Src/stm32f0xx_hal_rcc.c ****       }
 1492              		.loc 1 1122 18 is_stmt 0 view .LVU432
 1493 002a 0748     		ldr	r0, .L135+4
ARM GAS  /tmp/ccAPLIyc.s 			page 51


 1494 002c FFF7FEFF 		bl	__aeabi_uidiv
 1495              	.LVL100:
1122:Drivers/STM32F0xx_HAL_Driver/Src/stm32f0xx_hal_rcc.c ****       }
 1496              		.loc 1 1122 16 view .LVU433
 1497 0030 6043     		muls	r0, r4
 1498              	.LVL101:
1122:Drivers/STM32F0xx_HAL_Driver/Src/stm32f0xx_hal_rcc.c ****       }
 1499              		.loc 1 1122 16 view .LVU434
 1500 0032 EDE7     		b	.L130
 1501              	.LVL102:
 1502              	.L132:
1138:Drivers/STM32F0xx_HAL_Driver/Src/stm32f0xx_hal_rcc.c **** #endif
 1503              		.loc 1 1138 9 is_stmt 1 view .LVU435
1138:Drivers/STM32F0xx_HAL_Driver/Src/stm32f0xx_hal_rcc.c **** #endif
 1504              		.loc 1 1138 16 is_stmt 0 view .LVU436
 1505 0034 6301     		lsls	r3, r4, #5
 1506 0036 1B1B     		subs	r3, r3, r4
 1507 0038 9801     		lsls	r0, r3, #6
 1508 003a C01A     		subs	r0, r0, r3
 1509 003c C000     		lsls	r0, r0, #3
 1510 003e 0019     		adds	r0, r0, r4
 1511 0040 0002     		lsls	r0, r0, #8
 1512              	.LVL103:
1138:Drivers/STM32F0xx_HAL_Driver/Src/stm32f0xx_hal_rcc.c **** #endif
 1513              		.loc 1 1138 16 view .LVU437
 1514 0042 E5E7     		b	.L130
 1515              	.L136:
 1516              		.align	2
 1517              	.L135:
 1518 0044 00100240 		.word	1073876992
 1519 0048 00127A00 		.word	8000000
 1520 004c 00000000 		.word	.LANCHOR0
 1521 0050 00000000 		.word	.LANCHOR1
 1522              		.cfi_endproc
 1523              	.LFE46:
 1525              		.section	.text.HAL_RCC_ClockConfig,"ax",%progbits
 1526              		.align	1
 1527              		.global	HAL_RCC_ClockConfig
 1528              		.syntax unified
 1529              		.code	16
 1530              		.thumb_func
 1531              		.fpu softvfp
 1533              	HAL_RCC_ClockConfig:
 1534              	.LVL104:
 1535              	.LFB42:
 778:Drivers/STM32F0xx_HAL_Driver/Src/stm32f0xx_hal_rcc.c ****   uint32_t tickstart;
 1536              		.loc 1 778 1 is_stmt 1 view -0
 1537              		.cfi_startproc
 1538              		@ args = 0, pretend = 0, frame = 0
 1539              		@ frame_needed = 0, uses_anonymous_args = 0
 778:Drivers/STM32F0xx_HAL_Driver/Src/stm32f0xx_hal_rcc.c ****   uint32_t tickstart;
 1540              		.loc 1 778 1 is_stmt 0 view .LVU439
 1541 0000 70B5     		push	{r4, r5, r6, lr}
 1542              	.LCFI6:
 1543              		.cfi_def_cfa_offset 16
 1544              		.cfi_offset 4, -16
 1545              		.cfi_offset 5, -12
ARM GAS  /tmp/ccAPLIyc.s 			page 52


 1546              		.cfi_offset 6, -8
 1547              		.cfi_offset 14, -4
 1548 0002 0400     		movs	r4, r0
 1549 0004 0D00     		movs	r5, r1
 779:Drivers/STM32F0xx_HAL_Driver/Src/stm32f0xx_hal_rcc.c **** 
 1550              		.loc 1 779 3 is_stmt 1 view .LVU440
 782:Drivers/STM32F0xx_HAL_Driver/Src/stm32f0xx_hal_rcc.c ****   {
 1551              		.loc 1 782 3 view .LVU441
 782:Drivers/STM32F0xx_HAL_Driver/Src/stm32f0xx_hal_rcc.c ****   {
 1552              		.loc 1 782 5 is_stmt 0 view .LVU442
 1553 0006 0028     		cmp	r0, #0
 1554 0008 00D1     		bne	.LCB1499
 1555 000a 7EE0     		b	.L150	@long jump
 1556              	.LCB1499:
 788:Drivers/STM32F0xx_HAL_Driver/Src/stm32f0xx_hal_rcc.c ****   assert_param(IS_FLASH_LATENCY(FLatency));
 1557              		.loc 1 788 3 is_stmt 1 view .LVU443
 789:Drivers/STM32F0xx_HAL_Driver/Src/stm32f0xx_hal_rcc.c **** 
 1558              		.loc 1 789 3 view .LVU444
 796:Drivers/STM32F0xx_HAL_Driver/Src/stm32f0xx_hal_rcc.c ****   {    
 1559              		.loc 1 796 3 view .LVU445
 796:Drivers/STM32F0xx_HAL_Driver/Src/stm32f0xx_hal_rcc.c ****   {    
 1560              		.loc 1 796 17 is_stmt 0 view .LVU446
 1561 000c 434B     		ldr	r3, .L159
 1562 000e 1A68     		ldr	r2, [r3]
 1563 0010 0123     		movs	r3, #1
 1564 0012 1340     		ands	r3, r2
 796:Drivers/STM32F0xx_HAL_Driver/Src/stm32f0xx_hal_rcc.c ****   {    
 1565              		.loc 1 796 5 view .LVU447
 1566 0014 8B42     		cmp	r3, r1
 1567 0016 0AD2     		bcs	.L139
 799:Drivers/STM32F0xx_HAL_Driver/Src/stm32f0xx_hal_rcc.c ****     
 1568              		.loc 1 799 5 is_stmt 1 view .LVU448
 1569 0018 4049     		ldr	r1, .L159
 1570              	.LVL105:
 799:Drivers/STM32F0xx_HAL_Driver/Src/stm32f0xx_hal_rcc.c ****     
 1571              		.loc 1 799 5 is_stmt 0 view .LVU449
 1572 001a 0B68     		ldr	r3, [r1]
 1573 001c 0122     		movs	r2, #1
 1574 001e 9343     		bics	r3, r2
 1575 0020 2B43     		orrs	r3, r5
 1576 0022 0B60     		str	r3, [r1]
 803:Drivers/STM32F0xx_HAL_Driver/Src/stm32f0xx_hal_rcc.c ****     {
 1577              		.loc 1 803 5 is_stmt 1 view .LVU450
 803:Drivers/STM32F0xx_HAL_Driver/Src/stm32f0xx_hal_rcc.c ****     {
 1578              		.loc 1 803 8 is_stmt 0 view .LVU451
 1579 0024 0B68     		ldr	r3, [r1]
 1580 0026 1A40     		ands	r2, r3
 803:Drivers/STM32F0xx_HAL_Driver/Src/stm32f0xx_hal_rcc.c ****     {
 1581              		.loc 1 803 7 view .LVU452
 1582 0028 AA42     		cmp	r2, r5
 1583 002a 00D0     		beq	.LCB1521
 1584 002c 6FE0     		b	.L151	@long jump
 1585              	.LCB1521:
 1586              	.L139:
 810:Drivers/STM32F0xx_HAL_Driver/Src/stm32f0xx_hal_rcc.c ****   {
 1587              		.loc 1 810 3 is_stmt 1 view .LVU453
 810:Drivers/STM32F0xx_HAL_Driver/Src/stm32f0xx_hal_rcc.c ****   {
ARM GAS  /tmp/ccAPLIyc.s 			page 53


 1588              		.loc 1 810 25 is_stmt 0 view .LVU454
 1589 002e 2368     		ldr	r3, [r4]
 810:Drivers/STM32F0xx_HAL_Driver/Src/stm32f0xx_hal_rcc.c ****   {
 1590              		.loc 1 810 5 view .LVU455
 1591 0030 9A07     		lsls	r2, r3, #30
 1592 0032 0ED5     		bpl	.L140
 814:Drivers/STM32F0xx_HAL_Driver/Src/stm32f0xx_hal_rcc.c ****     {
 1593              		.loc 1 814 5 is_stmt 1 view .LVU456
 814:Drivers/STM32F0xx_HAL_Driver/Src/stm32f0xx_hal_rcc.c ****     {
 1594              		.loc 1 814 7 is_stmt 0 view .LVU457
 1595 0034 5B07     		lsls	r3, r3, #29
 1596 0036 05D5     		bpl	.L141
 816:Drivers/STM32F0xx_HAL_Driver/Src/stm32f0xx_hal_rcc.c ****     }
 1597              		.loc 1 816 7 is_stmt 1 view .LVU458
 1598 0038 394A     		ldr	r2, .L159+4
 1599 003a 5168     		ldr	r1, [r2, #4]
 1600 003c E023     		movs	r3, #224
 1601 003e DB00     		lsls	r3, r3, #3
 1602 0040 0B43     		orrs	r3, r1
 1603 0042 5360     		str	r3, [r2, #4]
 1604              	.L141:
 820:Drivers/STM32F0xx_HAL_Driver/Src/stm32f0xx_hal_rcc.c ****     MODIFY_REG(RCC->CFGR, RCC_CFGR_HPRE, RCC_ClkInitStruct->AHBCLKDivider);
 1605              		.loc 1 820 5 view .LVU459
 821:Drivers/STM32F0xx_HAL_Driver/Src/stm32f0xx_hal_rcc.c ****   }
 1606              		.loc 1 821 5 view .LVU460
 1607 0044 364A     		ldr	r2, .L159+4
 1608 0046 5368     		ldr	r3, [r2, #4]
 1609 0048 F021     		movs	r1, #240
 1610 004a 8B43     		bics	r3, r1
 1611 004c A168     		ldr	r1, [r4, #8]
 1612 004e 0B43     		orrs	r3, r1
 1613 0050 5360     		str	r3, [r2, #4]
 1614              	.L140:
 825:Drivers/STM32F0xx_HAL_Driver/Src/stm32f0xx_hal_rcc.c ****   {
 1615              		.loc 1 825 3 view .LVU461
 825:Drivers/STM32F0xx_HAL_Driver/Src/stm32f0xx_hal_rcc.c ****   {
 1616              		.loc 1 825 5 is_stmt 0 view .LVU462
 1617 0052 2368     		ldr	r3, [r4]
 1618 0054 DB07     		lsls	r3, r3, #31
 1619 0056 2DD5     		bpl	.L142
 827:Drivers/STM32F0xx_HAL_Driver/Src/stm32f0xx_hal_rcc.c ****     
 1620              		.loc 1 827 5 is_stmt 1 view .LVU463
 830:Drivers/STM32F0xx_HAL_Driver/Src/stm32f0xx_hal_rcc.c ****     {
 1621              		.loc 1 830 5 view .LVU464
 830:Drivers/STM32F0xx_HAL_Driver/Src/stm32f0xx_hal_rcc.c ****     {
 1622              		.loc 1 830 25 is_stmt 0 view .LVU465
 1623 0058 6368     		ldr	r3, [r4, #4]
 830:Drivers/STM32F0xx_HAL_Driver/Src/stm32f0xx_hal_rcc.c ****     {
 1624              		.loc 1 830 7 view .LVU466
 1625 005a 012B     		cmp	r3, #1
 1626 005c 1ED0     		beq	.L157
 839:Drivers/STM32F0xx_HAL_Driver/Src/stm32f0xx_hal_rcc.c ****     {
 1627              		.loc 1 839 10 is_stmt 1 view .LVU467
 839:Drivers/STM32F0xx_HAL_Driver/Src/stm32f0xx_hal_rcc.c ****     {
 1628              		.loc 1 839 12 is_stmt 0 view .LVU468
 1629 005e 022B     		cmp	r3, #2
 1630 0060 22D0     		beq	.L158
ARM GAS  /tmp/ccAPLIyc.s 			page 54


 862:Drivers/STM32F0xx_HAL_Driver/Src/stm32f0xx_hal_rcc.c ****       {
 1631              		.loc 1 862 7 is_stmt 1 view .LVU469
 862:Drivers/STM32F0xx_HAL_Driver/Src/stm32f0xx_hal_rcc.c ****       {
 1632              		.loc 1 862 10 is_stmt 0 view .LVU470
 1633 0062 2F4A     		ldr	r2, .L159+4
 1634 0064 1268     		ldr	r2, [r2]
 862:Drivers/STM32F0xx_HAL_Driver/Src/stm32f0xx_hal_rcc.c ****       {
 1635              		.loc 1 862 9 view .LVU471
 1636 0066 9207     		lsls	r2, r2, #30
 1637 0068 53D5     		bpl	.L154
 1638              	.L144:
 867:Drivers/STM32F0xx_HAL_Driver/Src/stm32f0xx_hal_rcc.c **** 
 1639              		.loc 1 867 5 is_stmt 1 view .LVU472
 1640 006a 2D49     		ldr	r1, .L159+4
 1641 006c 4A68     		ldr	r2, [r1, #4]
 1642 006e 0320     		movs	r0, #3
 1643              	.LVL106:
 867:Drivers/STM32F0xx_HAL_Driver/Src/stm32f0xx_hal_rcc.c **** 
 1644              		.loc 1 867 5 is_stmt 0 view .LVU473
 1645 0070 8243     		bics	r2, r0
 1646 0072 1343     		orrs	r3, r2
 1647 0074 4B60     		str	r3, [r1, #4]
 870:Drivers/STM32F0xx_HAL_Driver/Src/stm32f0xx_hal_rcc.c ****     
 1648              		.loc 1 870 5 is_stmt 1 view .LVU474
 870:Drivers/STM32F0xx_HAL_Driver/Src/stm32f0xx_hal_rcc.c ****     
 1649              		.loc 1 870 17 is_stmt 0 view .LVU475
 1650 0076 FFF7FEFF 		bl	HAL_GetTick
 1651              	.LVL107:
 1652 007a 0600     		movs	r6, r0
 1653              	.LVL108:
 872:Drivers/STM32F0xx_HAL_Driver/Src/stm32f0xx_hal_rcc.c ****     {
 1654              		.loc 1 872 5 is_stmt 1 view .LVU476
 1655              	.L146:
 872:Drivers/STM32F0xx_HAL_Driver/Src/stm32f0xx_hal_rcc.c ****     {
 1656              		.loc 1 872 11 view .LVU477
 872:Drivers/STM32F0xx_HAL_Driver/Src/stm32f0xx_hal_rcc.c ****     {
 1657              		.loc 1 872 12 is_stmt 0 view .LVU478
 1658 007c 284B     		ldr	r3, .L159+4
 1659 007e 5B68     		ldr	r3, [r3, #4]
 1660 0080 0C22     		movs	r2, #12
 1661 0082 1A40     		ands	r2, r3
 872:Drivers/STM32F0xx_HAL_Driver/Src/stm32f0xx_hal_rcc.c ****     {
 1662              		.loc 1 872 78 view .LVU479
 1663 0084 6368     		ldr	r3, [r4, #4]
 1664 0086 9B00     		lsls	r3, r3, #2
 872:Drivers/STM32F0xx_HAL_Driver/Src/stm32f0xx_hal_rcc.c ****     {
 1665              		.loc 1 872 11 view .LVU480
 1666 0088 9A42     		cmp	r2, r3
 1667 008a 13D0     		beq	.L142
 874:Drivers/STM32F0xx_HAL_Driver/Src/stm32f0xx_hal_rcc.c ****       {
 1668              		.loc 1 874 7 is_stmt 1 view .LVU481
 874:Drivers/STM32F0xx_HAL_Driver/Src/stm32f0xx_hal_rcc.c ****       {
 1669              		.loc 1 874 11 is_stmt 0 view .LVU482
 1670 008c FFF7FEFF 		bl	HAL_GetTick
 1671              	.LVL109:
 874:Drivers/STM32F0xx_HAL_Driver/Src/stm32f0xx_hal_rcc.c ****       {
 1672              		.loc 1 874 25 view .LVU483
ARM GAS  /tmp/ccAPLIyc.s 			page 55


 1673 0090 801B     		subs	r0, r0, r6
 874:Drivers/STM32F0xx_HAL_Driver/Src/stm32f0xx_hal_rcc.c ****       {
 1674              		.loc 1 874 9 view .LVU484
 1675 0092 244B     		ldr	r3, .L159+8
 1676 0094 9842     		cmp	r0, r3
 1677 0096 F1D9     		bls	.L146
 876:Drivers/STM32F0xx_HAL_Driver/Src/stm32f0xx_hal_rcc.c ****       }
 1678              		.loc 1 876 16 view .LVU485
 1679 0098 0320     		movs	r0, #3
 1680 009a 35E0     		b	.L138
 1681              	.LVL110:
 1682              	.L157:
 833:Drivers/STM32F0xx_HAL_Driver/Src/stm32f0xx_hal_rcc.c ****       {
 1683              		.loc 1 833 7 is_stmt 1 view .LVU486
 833:Drivers/STM32F0xx_HAL_Driver/Src/stm32f0xx_hal_rcc.c ****       {
 1684              		.loc 1 833 10 is_stmt 0 view .LVU487
 1685 009c 204A     		ldr	r2, .L159+4
 1686 009e 1268     		ldr	r2, [r2]
 833:Drivers/STM32F0xx_HAL_Driver/Src/stm32f0xx_hal_rcc.c ****       {
 1687              		.loc 1 833 9 view .LVU488
 1688 00a0 9203     		lsls	r2, r2, #14
 1689 00a2 E2D4     		bmi	.L144
 835:Drivers/STM32F0xx_HAL_Driver/Src/stm32f0xx_hal_rcc.c ****       }
 1690              		.loc 1 835 16 view .LVU489
 1691 00a4 0120     		movs	r0, #1
 1692              	.LVL111:
 835:Drivers/STM32F0xx_HAL_Driver/Src/stm32f0xx_hal_rcc.c ****       }
 1693              		.loc 1 835 16 view .LVU490
 1694 00a6 2FE0     		b	.L138
 1695              	.LVL112:
 1696              	.L158:
 842:Drivers/STM32F0xx_HAL_Driver/Src/stm32f0xx_hal_rcc.c ****       {
 1697              		.loc 1 842 7 is_stmt 1 view .LVU491
 842:Drivers/STM32F0xx_HAL_Driver/Src/stm32f0xx_hal_rcc.c ****       {
 1698              		.loc 1 842 10 is_stmt 0 view .LVU492
 1699 00a8 1D4A     		ldr	r2, .L159+4
 1700 00aa 1268     		ldr	r2, [r2]
 842:Drivers/STM32F0xx_HAL_Driver/Src/stm32f0xx_hal_rcc.c ****       {
 1701              		.loc 1 842 9 view .LVU493
 1702 00ac 9201     		lsls	r2, r2, #6
 1703 00ae DCD4     		bmi	.L144
 844:Drivers/STM32F0xx_HAL_Driver/Src/stm32f0xx_hal_rcc.c ****       }
 1704              		.loc 1 844 16 view .LVU494
 1705 00b0 0120     		movs	r0, #1
 1706              	.LVL113:
 844:Drivers/STM32F0xx_HAL_Driver/Src/stm32f0xx_hal_rcc.c ****       }
 1707              		.loc 1 844 16 view .LVU495
 1708 00b2 29E0     		b	.L138
 1709              	.L142:
 882:Drivers/STM32F0xx_HAL_Driver/Src/stm32f0xx_hal_rcc.c ****   {    
 1710              		.loc 1 882 3 is_stmt 1 view .LVU496
 882:Drivers/STM32F0xx_HAL_Driver/Src/stm32f0xx_hal_rcc.c ****   {    
 1711              		.loc 1 882 17 is_stmt 0 view .LVU497
 1712 00b4 194B     		ldr	r3, .L159
 1713 00b6 1A68     		ldr	r2, [r3]
 1714 00b8 0123     		movs	r3, #1
 1715 00ba 1340     		ands	r3, r2
ARM GAS  /tmp/ccAPLIyc.s 			page 56


 882:Drivers/STM32F0xx_HAL_Driver/Src/stm32f0xx_hal_rcc.c ****   {    
 1716              		.loc 1 882 5 view .LVU498
 1717 00bc AB42     		cmp	r3, r5
 1718 00be 09D9     		bls	.L148
 885:Drivers/STM32F0xx_HAL_Driver/Src/stm32f0xx_hal_rcc.c ****     
 1719              		.loc 1 885 5 is_stmt 1 view .LVU499
 1720 00c0 1649     		ldr	r1, .L159
 1721 00c2 0B68     		ldr	r3, [r1]
 1722 00c4 0122     		movs	r2, #1
 1723 00c6 9343     		bics	r3, r2
 1724 00c8 2B43     		orrs	r3, r5
 1725 00ca 0B60     		str	r3, [r1]
 889:Drivers/STM32F0xx_HAL_Driver/Src/stm32f0xx_hal_rcc.c ****     {
 1726              		.loc 1 889 5 view .LVU500
 889:Drivers/STM32F0xx_HAL_Driver/Src/stm32f0xx_hal_rcc.c ****     {
 1727              		.loc 1 889 8 is_stmt 0 view .LVU501
 1728 00cc 0B68     		ldr	r3, [r1]
 1729 00ce 1A40     		ands	r2, r3
 889:Drivers/STM32F0xx_HAL_Driver/Src/stm32f0xx_hal_rcc.c ****     {
 1730              		.loc 1 889 7 view .LVU502
 1731 00d0 AA42     		cmp	r2, r5
 1732 00d2 20D1     		bne	.L156
 1733              	.L148:
 896:Drivers/STM32F0xx_HAL_Driver/Src/stm32f0xx_hal_rcc.c ****   {
 1734              		.loc 1 896 3 is_stmt 1 view .LVU503
 896:Drivers/STM32F0xx_HAL_Driver/Src/stm32f0xx_hal_rcc.c ****   {
 1735              		.loc 1 896 5 is_stmt 0 view .LVU504
 1736 00d4 2368     		ldr	r3, [r4]
 1737 00d6 5B07     		lsls	r3, r3, #29
 1738 00d8 06D5     		bpl	.L149
 898:Drivers/STM32F0xx_HAL_Driver/Src/stm32f0xx_hal_rcc.c ****     MODIFY_REG(RCC->CFGR, RCC_CFGR_PPRE, RCC_ClkInitStruct->APB1CLKDivider);
 1739              		.loc 1 898 5 is_stmt 1 view .LVU505
 899:Drivers/STM32F0xx_HAL_Driver/Src/stm32f0xx_hal_rcc.c ****   }
 1740              		.loc 1 899 5 view .LVU506
 1741 00da 114A     		ldr	r2, .L159+4
 1742 00dc 5368     		ldr	r3, [r2, #4]
 1743 00de 1249     		ldr	r1, .L159+12
 1744 00e0 0B40     		ands	r3, r1
 1745 00e2 E168     		ldr	r1, [r4, #12]
 1746 00e4 0B43     		orrs	r3, r1
 1747 00e6 5360     		str	r3, [r2, #4]
 1748              	.L149:
 903:Drivers/STM32F0xx_HAL_Driver/Src/stm32f0xx_hal_rcc.c **** 
 1749              		.loc 1 903 3 view .LVU507
 903:Drivers/STM32F0xx_HAL_Driver/Src/stm32f0xx_hal_rcc.c **** 
 1750              		.loc 1 903 21 is_stmt 0 view .LVU508
 1751 00e8 FFF7FEFF 		bl	HAL_RCC_GetSysClockFreq
 1752              	.LVL114:
 903:Drivers/STM32F0xx_HAL_Driver/Src/stm32f0xx_hal_rcc.c **** 
 1753              		.loc 1 903 68 view .LVU509
 1754 00ec 0C4B     		ldr	r3, .L159+4
 1755 00ee 5A68     		ldr	r2, [r3, #4]
 903:Drivers/STM32F0xx_HAL_Driver/Src/stm32f0xx_hal_rcc.c **** 
 1756              		.loc 1 903 91 view .LVU510
 1757 00f0 1209     		lsrs	r2, r2, #4
 1758 00f2 0F23     		movs	r3, #15
 1759 00f4 1340     		ands	r3, r2
ARM GAS  /tmp/ccAPLIyc.s 			page 57


 903:Drivers/STM32F0xx_HAL_Driver/Src/stm32f0xx_hal_rcc.c **** 
 1760              		.loc 1 903 63 view .LVU511
 1761 00f6 0D4A     		ldr	r2, .L159+16
 1762 00f8 D35C     		ldrb	r3, [r2, r3]
 903:Drivers/STM32F0xx_HAL_Driver/Src/stm32f0xx_hal_rcc.c **** 
 1763              		.loc 1 903 47 view .LVU512
 1764 00fa D840     		lsrs	r0, r0, r3
 903:Drivers/STM32F0xx_HAL_Driver/Src/stm32f0xx_hal_rcc.c **** 
 1765              		.loc 1 903 19 view .LVU513
 1766 00fc 0C4B     		ldr	r3, .L159+20
 1767 00fe 1860     		str	r0, [r3]
 906:Drivers/STM32F0xx_HAL_Driver/Src/stm32f0xx_hal_rcc.c ****   
 1768              		.loc 1 906 3 is_stmt 1 view .LVU514
 1769 0100 0320     		movs	r0, #3
 1770 0102 FFF7FEFF 		bl	HAL_InitTick
 1771              	.LVL115:
 908:Drivers/STM32F0xx_HAL_Driver/Src/stm32f0xx_hal_rcc.c **** }
 1772              		.loc 1 908 3 view .LVU515
 908:Drivers/STM32F0xx_HAL_Driver/Src/stm32f0xx_hal_rcc.c **** }
 1773              		.loc 1 908 10 is_stmt 0 view .LVU516
 1774 0106 0020     		movs	r0, #0
 1775              	.L138:
 909:Drivers/STM32F0xx_HAL_Driver/Src/stm32f0xx_hal_rcc.c **** 
 1776              		.loc 1 909 1 view .LVU517
 1777              		@ sp needed
 1778              	.LVL116:
 1779              	.LVL117:
 909:Drivers/STM32F0xx_HAL_Driver/Src/stm32f0xx_hal_rcc.c **** 
 1780              		.loc 1 909 1 view .LVU518
 1781 0108 70BD     		pop	{r4, r5, r6, pc}
 1782              	.LVL118:
 1783              	.L150:
 784:Drivers/STM32F0xx_HAL_Driver/Src/stm32f0xx_hal_rcc.c ****   }
 1784              		.loc 1 784 12 view .LVU519
 1785 010a 0120     		movs	r0, #1
 1786              	.LVL119:
 784:Drivers/STM32F0xx_HAL_Driver/Src/stm32f0xx_hal_rcc.c ****   }
 1787              		.loc 1 784 12 view .LVU520
 1788 010c FCE7     		b	.L138
 1789              	.LVL120:
 1790              	.L151:
 805:Drivers/STM32F0xx_HAL_Driver/Src/stm32f0xx_hal_rcc.c ****     }
 1791              		.loc 1 805 14 view .LVU521
 1792 010e 0120     		movs	r0, #1
 1793              	.LVL121:
 805:Drivers/STM32F0xx_HAL_Driver/Src/stm32f0xx_hal_rcc.c ****     }
 1794              		.loc 1 805 14 view .LVU522
 1795 0110 FAE7     		b	.L138
 1796              	.LVL122:
 1797              	.L154:
 864:Drivers/STM32F0xx_HAL_Driver/Src/stm32f0xx_hal_rcc.c ****       }
 1798              		.loc 1 864 16 view .LVU523
 1799 0112 0120     		movs	r0, #1
 1800              	.LVL123:
 864:Drivers/STM32F0xx_HAL_Driver/Src/stm32f0xx_hal_rcc.c ****       }
 1801              		.loc 1 864 16 view .LVU524
 1802 0114 F8E7     		b	.L138
ARM GAS  /tmp/ccAPLIyc.s 			page 58


 1803              	.L156:
 891:Drivers/STM32F0xx_HAL_Driver/Src/stm32f0xx_hal_rcc.c ****     }
 1804              		.loc 1 891 14 view .LVU525
 1805 0116 0120     		movs	r0, #1
 1806 0118 F6E7     		b	.L138
 1807              	.L160:
 1808 011a C046     		.align	2
 1809              	.L159:
 1810 011c 00200240 		.word	1073881088
 1811 0120 00100240 		.word	1073876992
 1812 0124 88130000 		.word	5000
 1813 0128 FFF8FFFF 		.word	-1793
 1814 012c 00000000 		.word	AHBPrescTable
 1815 0130 00000000 		.word	SystemCoreClock
 1816              		.cfi_endproc
 1817              	.LFE42:
 1819              		.section	.text.HAL_RCC_GetHCLKFreq,"ax",%progbits
 1820              		.align	1
 1821              		.global	HAL_RCC_GetHCLKFreq
 1822              		.syntax unified
 1823              		.code	16
 1824              		.thumb_func
 1825              		.fpu softvfp
 1827              	HAL_RCC_GetHCLKFreq:
 1828              	.LFB47:
1160:Drivers/STM32F0xx_HAL_Driver/Src/stm32f0xx_hal_rcc.c **** 
1161:Drivers/STM32F0xx_HAL_Driver/Src/stm32f0xx_hal_rcc.c **** /**
1162:Drivers/STM32F0xx_HAL_Driver/Src/stm32f0xx_hal_rcc.c ****   * @brief  Returns the HCLK frequency     
1163:Drivers/STM32F0xx_HAL_Driver/Src/stm32f0xx_hal_rcc.c ****   * @note   Each time HCLK changes, this function must be called to update the
1164:Drivers/STM32F0xx_HAL_Driver/Src/stm32f0xx_hal_rcc.c ****   *         right HCLK value. Otherwise, any configuration based on this function will be incorrect
1165:Drivers/STM32F0xx_HAL_Driver/Src/stm32f0xx_hal_rcc.c ****   * 
1166:Drivers/STM32F0xx_HAL_Driver/Src/stm32f0xx_hal_rcc.c ****   * @note   The SystemCoreClock CMSIS variable is used to store System Clock Frequency 
1167:Drivers/STM32F0xx_HAL_Driver/Src/stm32f0xx_hal_rcc.c ****   *         and updated within this function
1168:Drivers/STM32F0xx_HAL_Driver/Src/stm32f0xx_hal_rcc.c ****   * @retval HCLK frequency
1169:Drivers/STM32F0xx_HAL_Driver/Src/stm32f0xx_hal_rcc.c ****   */
1170:Drivers/STM32F0xx_HAL_Driver/Src/stm32f0xx_hal_rcc.c **** uint32_t HAL_RCC_GetHCLKFreq(void)
1171:Drivers/STM32F0xx_HAL_Driver/Src/stm32f0xx_hal_rcc.c **** {
 1829              		.loc 1 1171 1 is_stmt 1 view -0
 1830              		.cfi_startproc
 1831              		@ args = 0, pretend = 0, frame = 0
 1832              		@ frame_needed = 0, uses_anonymous_args = 0
 1833              		@ link register save eliminated.
1172:Drivers/STM32F0xx_HAL_Driver/Src/stm32f0xx_hal_rcc.c ****   return SystemCoreClock;
 1834              		.loc 1 1172 3 view .LVU527
 1835              		.loc 1 1172 10 is_stmt 0 view .LVU528
 1836 0000 014B     		ldr	r3, .L162
 1837 0002 1868     		ldr	r0, [r3]
1173:Drivers/STM32F0xx_HAL_Driver/Src/stm32f0xx_hal_rcc.c **** }
 1838              		.loc 1 1173 1 view .LVU529
 1839              		@ sp needed
 1840 0004 7047     		bx	lr
 1841              	.L163:
 1842 0006 C046     		.align	2
 1843              	.L162:
 1844 0008 00000000 		.word	SystemCoreClock
 1845              		.cfi_endproc
 1846              	.LFE47:
ARM GAS  /tmp/ccAPLIyc.s 			page 59


 1848              		.section	.text.HAL_RCC_GetPCLK1Freq,"ax",%progbits
 1849              		.align	1
 1850              		.global	HAL_RCC_GetPCLK1Freq
 1851              		.syntax unified
 1852              		.code	16
 1853              		.thumb_func
 1854              		.fpu softvfp
 1856              	HAL_RCC_GetPCLK1Freq:
 1857              	.LFB48:
1174:Drivers/STM32F0xx_HAL_Driver/Src/stm32f0xx_hal_rcc.c **** 
1175:Drivers/STM32F0xx_HAL_Driver/Src/stm32f0xx_hal_rcc.c **** /**
1176:Drivers/STM32F0xx_HAL_Driver/Src/stm32f0xx_hal_rcc.c ****   * @brief  Returns the PCLK1 frequency     
1177:Drivers/STM32F0xx_HAL_Driver/Src/stm32f0xx_hal_rcc.c ****   * @note   Each time PCLK1 changes, this function must be called to update the
1178:Drivers/STM32F0xx_HAL_Driver/Src/stm32f0xx_hal_rcc.c ****   *         right PCLK1 value. Otherwise, any configuration based on this function will be incorrec
1179:Drivers/STM32F0xx_HAL_Driver/Src/stm32f0xx_hal_rcc.c ****   * @retval PCLK1 frequency
1180:Drivers/STM32F0xx_HAL_Driver/Src/stm32f0xx_hal_rcc.c ****   */
1181:Drivers/STM32F0xx_HAL_Driver/Src/stm32f0xx_hal_rcc.c **** uint32_t HAL_RCC_GetPCLK1Freq(void)
1182:Drivers/STM32F0xx_HAL_Driver/Src/stm32f0xx_hal_rcc.c **** {
 1858              		.loc 1 1182 1 is_stmt 1 view -0
 1859              		.cfi_startproc
 1860              		@ args = 0, pretend = 0, frame = 0
 1861              		@ frame_needed = 0, uses_anonymous_args = 0
 1862 0000 10B5     		push	{r4, lr}
 1863              	.LCFI7:
 1864              		.cfi_def_cfa_offset 8
 1865              		.cfi_offset 4, -8
 1866              		.cfi_offset 14, -4
1183:Drivers/STM32F0xx_HAL_Driver/Src/stm32f0xx_hal_rcc.c ****   /* Get HCLK source and Compute PCLK1 frequency ---------------------------*/
1184:Drivers/STM32F0xx_HAL_Driver/Src/stm32f0xx_hal_rcc.c ****   return (HAL_RCC_GetHCLKFreq() >> APBPrescTable[(RCC->CFGR & RCC_CFGR_PPRE) >> RCC_CFGR_PPRE_BITNU
 1867              		.loc 1 1184 3 view .LVU531
 1868              		.loc 1 1184 11 is_stmt 0 view .LVU532
 1869 0002 FFF7FEFF 		bl	HAL_RCC_GetHCLKFreq
 1870              	.LVL124:
 1871              		.loc 1 1184 54 view .LVU533
 1872 0006 044B     		ldr	r3, .L165
 1873 0008 5A68     		ldr	r2, [r3, #4]
 1874              		.loc 1 1184 78 view .LVU534
 1875 000a 120A     		lsrs	r2, r2, #8
 1876 000c 0723     		movs	r3, #7
 1877 000e 1340     		ands	r3, r2
 1878              		.loc 1 1184 49 view .LVU535
 1879 0010 024A     		ldr	r2, .L165+4
 1880 0012 D35C     		ldrb	r3, [r2, r3]
 1881              		.loc 1 1184 33 view .LVU536
 1882 0014 D840     		lsrs	r0, r0, r3
1185:Drivers/STM32F0xx_HAL_Driver/Src/stm32f0xx_hal_rcc.c **** }    
 1883              		.loc 1 1185 1 view .LVU537
 1884              		@ sp needed
 1885 0016 10BD     		pop	{r4, pc}
 1886              	.L166:
 1887              		.align	2
 1888              	.L165:
 1889 0018 00100240 		.word	1073876992
 1890 001c 00000000 		.word	APBPrescTable
 1891              		.cfi_endproc
 1892              	.LFE48:
 1894              		.section	.text.HAL_RCC_GetOscConfig,"ax",%progbits
ARM GAS  /tmp/ccAPLIyc.s 			page 60


 1895              		.align	1
 1896              		.global	HAL_RCC_GetOscConfig
 1897              		.syntax unified
 1898              		.code	16
 1899              		.thumb_func
 1900              		.fpu softvfp
 1902              	HAL_RCC_GetOscConfig:
 1903              	.LVL125:
 1904              	.LFB49:
1186:Drivers/STM32F0xx_HAL_Driver/Src/stm32f0xx_hal_rcc.c **** 
1187:Drivers/STM32F0xx_HAL_Driver/Src/stm32f0xx_hal_rcc.c **** /**
1188:Drivers/STM32F0xx_HAL_Driver/Src/stm32f0xx_hal_rcc.c ****   * @brief  Configures the RCC_OscInitStruct according to the internal 
1189:Drivers/STM32F0xx_HAL_Driver/Src/stm32f0xx_hal_rcc.c ****   * RCC configuration registers.
1190:Drivers/STM32F0xx_HAL_Driver/Src/stm32f0xx_hal_rcc.c ****   * @param  RCC_OscInitStruct pointer to an RCC_OscInitTypeDef structure that 
1191:Drivers/STM32F0xx_HAL_Driver/Src/stm32f0xx_hal_rcc.c ****   * will be configured.
1192:Drivers/STM32F0xx_HAL_Driver/Src/stm32f0xx_hal_rcc.c ****   * @retval None
1193:Drivers/STM32F0xx_HAL_Driver/Src/stm32f0xx_hal_rcc.c ****   */
1194:Drivers/STM32F0xx_HAL_Driver/Src/stm32f0xx_hal_rcc.c **** void HAL_RCC_GetOscConfig(RCC_OscInitTypeDef  *RCC_OscInitStruct)
1195:Drivers/STM32F0xx_HAL_Driver/Src/stm32f0xx_hal_rcc.c **** {
 1905              		.loc 1 1195 1 is_stmt 1 view -0
 1906              		.cfi_startproc
 1907              		@ args = 0, pretend = 0, frame = 0
 1908              		@ frame_needed = 0, uses_anonymous_args = 0
 1909              		@ link register save eliminated.
1196:Drivers/STM32F0xx_HAL_Driver/Src/stm32f0xx_hal_rcc.c ****   /* Check the parameters */
1197:Drivers/STM32F0xx_HAL_Driver/Src/stm32f0xx_hal_rcc.c ****   assert_param(RCC_OscInitStruct != NULL);
 1910              		.loc 1 1197 3 view .LVU539
1198:Drivers/STM32F0xx_HAL_Driver/Src/stm32f0xx_hal_rcc.c **** 
1199:Drivers/STM32F0xx_HAL_Driver/Src/stm32f0xx_hal_rcc.c ****   /* Set all possible values for the Oscillator type parameter ---------------*/
1200:Drivers/STM32F0xx_HAL_Driver/Src/stm32f0xx_hal_rcc.c ****   RCC_OscInitStruct->OscillatorType = RCC_OSCILLATORTYPE_HSE | RCC_OSCILLATORTYPE_HSI  \
 1911              		.loc 1 1200 3 view .LVU540
 1912              		.loc 1 1200 37 is_stmt 0 view .LVU541
 1913 0000 1F23     		movs	r3, #31
 1914 0002 0360     		str	r3, [r0]
1201:Drivers/STM32F0xx_HAL_Driver/Src/stm32f0xx_hal_rcc.c ****                   | RCC_OSCILLATORTYPE_LSE | RCC_OSCILLATORTYPE_LSI | RCC_OSCILLATORTYPE_HSI14;
1202:Drivers/STM32F0xx_HAL_Driver/Src/stm32f0xx_hal_rcc.c **** #if defined(RCC_HSI48_SUPPORT)
1203:Drivers/STM32F0xx_HAL_Driver/Src/stm32f0xx_hal_rcc.c ****   RCC_OscInitStruct->OscillatorType |= RCC_OSCILLATORTYPE_HSI48;
1204:Drivers/STM32F0xx_HAL_Driver/Src/stm32f0xx_hal_rcc.c **** #endif /* RCC_HSI48_SUPPORT */
1205:Drivers/STM32F0xx_HAL_Driver/Src/stm32f0xx_hal_rcc.c **** 
1206:Drivers/STM32F0xx_HAL_Driver/Src/stm32f0xx_hal_rcc.c **** 
1207:Drivers/STM32F0xx_HAL_Driver/Src/stm32f0xx_hal_rcc.c ****   /* Get the HSE configuration -----------------------------------------------*/
1208:Drivers/STM32F0xx_HAL_Driver/Src/stm32f0xx_hal_rcc.c ****   if((RCC->CR &RCC_CR_HSEBYP) == RCC_CR_HSEBYP)
 1915              		.loc 1 1208 3 is_stmt 1 view .LVU542
 1916              		.loc 1 1208 10 is_stmt 0 view .LVU543
 1917 0004 2E4B     		ldr	r3, .L182
 1918 0006 1B68     		ldr	r3, [r3]
 1919              		.loc 1 1208 5 view .LVU544
 1920 0008 5B03     		lsls	r3, r3, #13
 1921 000a 39D5     		bpl	.L168
1209:Drivers/STM32F0xx_HAL_Driver/Src/stm32f0xx_hal_rcc.c ****   {
1210:Drivers/STM32F0xx_HAL_Driver/Src/stm32f0xx_hal_rcc.c ****     RCC_OscInitStruct->HSEState = RCC_HSE_BYPASS;
 1922              		.loc 1 1210 5 is_stmt 1 view .LVU545
 1923              		.loc 1 1210 33 is_stmt 0 view .LVU546
 1924 000c 0523     		movs	r3, #5
 1925 000e 4360     		str	r3, [r0, #4]
 1926              	.L169:
1211:Drivers/STM32F0xx_HAL_Driver/Src/stm32f0xx_hal_rcc.c ****   }
ARM GAS  /tmp/ccAPLIyc.s 			page 61


1212:Drivers/STM32F0xx_HAL_Driver/Src/stm32f0xx_hal_rcc.c ****   else if((RCC->CR &RCC_CR_HSEON) == RCC_CR_HSEON)
1213:Drivers/STM32F0xx_HAL_Driver/Src/stm32f0xx_hal_rcc.c ****   {
1214:Drivers/STM32F0xx_HAL_Driver/Src/stm32f0xx_hal_rcc.c ****     RCC_OscInitStruct->HSEState = RCC_HSE_ON;
1215:Drivers/STM32F0xx_HAL_Driver/Src/stm32f0xx_hal_rcc.c ****   }
1216:Drivers/STM32F0xx_HAL_Driver/Src/stm32f0xx_hal_rcc.c ****   else
1217:Drivers/STM32F0xx_HAL_Driver/Src/stm32f0xx_hal_rcc.c ****   {
1218:Drivers/STM32F0xx_HAL_Driver/Src/stm32f0xx_hal_rcc.c ****     RCC_OscInitStruct->HSEState = RCC_HSE_OFF;
1219:Drivers/STM32F0xx_HAL_Driver/Src/stm32f0xx_hal_rcc.c ****   }
1220:Drivers/STM32F0xx_HAL_Driver/Src/stm32f0xx_hal_rcc.c **** 
1221:Drivers/STM32F0xx_HAL_Driver/Src/stm32f0xx_hal_rcc.c ****   /* Get the HSI configuration -----------------------------------------------*/
1222:Drivers/STM32F0xx_HAL_Driver/Src/stm32f0xx_hal_rcc.c ****   if((RCC->CR &RCC_CR_HSION) == RCC_CR_HSION)
 1927              		.loc 1 1222 3 is_stmt 1 view .LVU547
 1928              		.loc 1 1222 10 is_stmt 0 view .LVU548
 1929 0010 2B4B     		ldr	r3, .L182
 1930 0012 1B68     		ldr	r3, [r3]
 1931              		.loc 1 1222 5 view .LVU549
 1932 0014 DB07     		lsls	r3, r3, #31
 1933 0016 3DD5     		bpl	.L171
1223:Drivers/STM32F0xx_HAL_Driver/Src/stm32f0xx_hal_rcc.c ****   {
1224:Drivers/STM32F0xx_HAL_Driver/Src/stm32f0xx_hal_rcc.c ****     RCC_OscInitStruct->HSIState = RCC_HSI_ON;
 1934              		.loc 1 1224 5 is_stmt 1 view .LVU550
 1935              		.loc 1 1224 33 is_stmt 0 view .LVU551
 1936 0018 0123     		movs	r3, #1
 1937 001a C360     		str	r3, [r0, #12]
 1938              	.L172:
1225:Drivers/STM32F0xx_HAL_Driver/Src/stm32f0xx_hal_rcc.c ****   }
1226:Drivers/STM32F0xx_HAL_Driver/Src/stm32f0xx_hal_rcc.c ****   else
1227:Drivers/STM32F0xx_HAL_Driver/Src/stm32f0xx_hal_rcc.c ****   {
1228:Drivers/STM32F0xx_HAL_Driver/Src/stm32f0xx_hal_rcc.c ****     RCC_OscInitStruct->HSIState = RCC_HSI_OFF;
1229:Drivers/STM32F0xx_HAL_Driver/Src/stm32f0xx_hal_rcc.c ****   }
1230:Drivers/STM32F0xx_HAL_Driver/Src/stm32f0xx_hal_rcc.c ****   
1231:Drivers/STM32F0xx_HAL_Driver/Src/stm32f0xx_hal_rcc.c ****   RCC_OscInitStruct->HSICalibrationValue = (uint32_t)((RCC->CR &RCC_CR_HSITRIM) >> RCC_CR_HSITRIM_B
 1939              		.loc 1 1231 3 is_stmt 1 view .LVU552
 1940              		.loc 1 1231 59 is_stmt 0 view .LVU553
 1941 001c 2849     		ldr	r1, .L182
 1942 001e 0A68     		ldr	r2, [r1]
 1943              		.loc 1 1231 44 view .LVU554
 1944 0020 D208     		lsrs	r2, r2, #3
 1945 0022 1F23     		movs	r3, #31
 1946 0024 1340     		ands	r3, r2
 1947              		.loc 1 1231 42 view .LVU555
 1948 0026 0361     		str	r3, [r0, #16]
1232:Drivers/STM32F0xx_HAL_Driver/Src/stm32f0xx_hal_rcc.c ****   
1233:Drivers/STM32F0xx_HAL_Driver/Src/stm32f0xx_hal_rcc.c ****   /* Get the LSE configuration -----------------------------------------------*/
1234:Drivers/STM32F0xx_HAL_Driver/Src/stm32f0xx_hal_rcc.c ****   if((RCC->BDCR &RCC_BDCR_LSEBYP) == RCC_BDCR_LSEBYP)
 1949              		.loc 1 1234 3 is_stmt 1 view .LVU556
 1950              		.loc 1 1234 10 is_stmt 0 view .LVU557
 1951 0028 0B6A     		ldr	r3, [r1, #32]
 1952              		.loc 1 1234 5 view .LVU558
 1953 002a 5B07     		lsls	r3, r3, #29
 1954 002c 35D5     		bpl	.L173
1235:Drivers/STM32F0xx_HAL_Driver/Src/stm32f0xx_hal_rcc.c ****   {
1236:Drivers/STM32F0xx_HAL_Driver/Src/stm32f0xx_hal_rcc.c ****     RCC_OscInitStruct->LSEState = RCC_LSE_BYPASS;
 1955              		.loc 1 1236 5 is_stmt 1 view .LVU559
 1956              		.loc 1 1236 33 is_stmt 0 view .LVU560
 1957 002e 0523     		movs	r3, #5
 1958 0030 8360     		str	r3, [r0, #8]
ARM GAS  /tmp/ccAPLIyc.s 			page 62


 1959              	.L174:
1237:Drivers/STM32F0xx_HAL_Driver/Src/stm32f0xx_hal_rcc.c ****   }
1238:Drivers/STM32F0xx_HAL_Driver/Src/stm32f0xx_hal_rcc.c ****   else if((RCC->BDCR &RCC_BDCR_LSEON) == RCC_BDCR_LSEON)
1239:Drivers/STM32F0xx_HAL_Driver/Src/stm32f0xx_hal_rcc.c ****   {
1240:Drivers/STM32F0xx_HAL_Driver/Src/stm32f0xx_hal_rcc.c ****     RCC_OscInitStruct->LSEState = RCC_LSE_ON;
1241:Drivers/STM32F0xx_HAL_Driver/Src/stm32f0xx_hal_rcc.c ****   }
1242:Drivers/STM32F0xx_HAL_Driver/Src/stm32f0xx_hal_rcc.c ****   else
1243:Drivers/STM32F0xx_HAL_Driver/Src/stm32f0xx_hal_rcc.c ****   {
1244:Drivers/STM32F0xx_HAL_Driver/Src/stm32f0xx_hal_rcc.c ****     RCC_OscInitStruct->LSEState = RCC_LSE_OFF;
1245:Drivers/STM32F0xx_HAL_Driver/Src/stm32f0xx_hal_rcc.c ****   }
1246:Drivers/STM32F0xx_HAL_Driver/Src/stm32f0xx_hal_rcc.c ****   
1247:Drivers/STM32F0xx_HAL_Driver/Src/stm32f0xx_hal_rcc.c ****   /* Get the LSI configuration -----------------------------------------------*/
1248:Drivers/STM32F0xx_HAL_Driver/Src/stm32f0xx_hal_rcc.c ****   if((RCC->CSR &RCC_CSR_LSION) == RCC_CSR_LSION)
 1960              		.loc 1 1248 3 is_stmt 1 view .LVU561
 1961              		.loc 1 1248 10 is_stmt 0 view .LVU562
 1962 0032 234B     		ldr	r3, .L182
 1963 0034 5B6A     		ldr	r3, [r3, #36]
 1964              		.loc 1 1248 5 view .LVU563
 1965 0036 DB07     		lsls	r3, r3, #31
 1966 0038 39D5     		bpl	.L176
1249:Drivers/STM32F0xx_HAL_Driver/Src/stm32f0xx_hal_rcc.c ****   {
1250:Drivers/STM32F0xx_HAL_Driver/Src/stm32f0xx_hal_rcc.c ****     RCC_OscInitStruct->LSIState = RCC_LSI_ON;
 1967              		.loc 1 1250 5 is_stmt 1 view .LVU564
 1968              		.loc 1 1250 33 is_stmt 0 view .LVU565
 1969 003a 0123     		movs	r3, #1
 1970 003c C361     		str	r3, [r0, #28]
 1971              	.L177:
1251:Drivers/STM32F0xx_HAL_Driver/Src/stm32f0xx_hal_rcc.c ****   }
1252:Drivers/STM32F0xx_HAL_Driver/Src/stm32f0xx_hal_rcc.c ****   else
1253:Drivers/STM32F0xx_HAL_Driver/Src/stm32f0xx_hal_rcc.c ****   {
1254:Drivers/STM32F0xx_HAL_Driver/Src/stm32f0xx_hal_rcc.c ****     RCC_OscInitStruct->LSIState = RCC_LSI_OFF;
1255:Drivers/STM32F0xx_HAL_Driver/Src/stm32f0xx_hal_rcc.c ****   }
1256:Drivers/STM32F0xx_HAL_Driver/Src/stm32f0xx_hal_rcc.c ****   
1257:Drivers/STM32F0xx_HAL_Driver/Src/stm32f0xx_hal_rcc.c ****   /* Get the HSI14 configuration -----------------------------------------------*/
1258:Drivers/STM32F0xx_HAL_Driver/Src/stm32f0xx_hal_rcc.c ****   if((RCC->CR2 & RCC_CR2_HSI14ON) == RCC_CR2_HSI14ON)
 1972              		.loc 1 1258 3 is_stmt 1 view .LVU566
 1973              		.loc 1 1258 10 is_stmt 0 view .LVU567
 1974 003e 204B     		ldr	r3, .L182
 1975 0040 5B6B     		ldr	r3, [r3, #52]
 1976              		.loc 1 1258 5 view .LVU568
 1977 0042 DB07     		lsls	r3, r3, #31
 1978 0044 36D5     		bpl	.L178
1259:Drivers/STM32F0xx_HAL_Driver/Src/stm32f0xx_hal_rcc.c ****   {
1260:Drivers/STM32F0xx_HAL_Driver/Src/stm32f0xx_hal_rcc.c ****     RCC_OscInitStruct->HSI14State = RCC_HSI_ON;
 1979              		.loc 1 1260 5 is_stmt 1 view .LVU569
 1980              		.loc 1 1260 35 is_stmt 0 view .LVU570
 1981 0046 0123     		movs	r3, #1
 1982 0048 4361     		str	r3, [r0, #20]
 1983              	.L179:
1261:Drivers/STM32F0xx_HAL_Driver/Src/stm32f0xx_hal_rcc.c ****   }
1262:Drivers/STM32F0xx_HAL_Driver/Src/stm32f0xx_hal_rcc.c ****   else
1263:Drivers/STM32F0xx_HAL_Driver/Src/stm32f0xx_hal_rcc.c ****   {
1264:Drivers/STM32F0xx_HAL_Driver/Src/stm32f0xx_hal_rcc.c ****     RCC_OscInitStruct->HSI14State = RCC_HSI_OFF;
1265:Drivers/STM32F0xx_HAL_Driver/Src/stm32f0xx_hal_rcc.c ****   }
1266:Drivers/STM32F0xx_HAL_Driver/Src/stm32f0xx_hal_rcc.c **** 
1267:Drivers/STM32F0xx_HAL_Driver/Src/stm32f0xx_hal_rcc.c ****   RCC_OscInitStruct->HSI14CalibrationValue = (uint32_t)((RCC->CR2 & RCC_CR2_HSI14TRIM) >> RCC_HSI14
 1984              		.loc 1 1267 3 is_stmt 1 view .LVU571
ARM GAS  /tmp/ccAPLIyc.s 			page 63


 1985              		.loc 1 1267 61 is_stmt 0 view .LVU572
 1986 004a 1D49     		ldr	r1, .L182
 1987 004c 4A6B     		ldr	r2, [r1, #52]
 1988              		.loc 1 1267 46 view .LVU573
 1989 004e D208     		lsrs	r2, r2, #3
 1990 0050 1F23     		movs	r3, #31
 1991 0052 1340     		ands	r3, r2
 1992              		.loc 1 1267 44 view .LVU574
 1993 0054 8361     		str	r3, [r0, #24]
1268:Drivers/STM32F0xx_HAL_Driver/Src/stm32f0xx_hal_rcc.c ****   
1269:Drivers/STM32F0xx_HAL_Driver/Src/stm32f0xx_hal_rcc.c **** #if defined(RCC_HSI48_SUPPORT)
1270:Drivers/STM32F0xx_HAL_Driver/Src/stm32f0xx_hal_rcc.c ****   /* Get the HSI48 configuration if any-----------------------------------------*/
1271:Drivers/STM32F0xx_HAL_Driver/Src/stm32f0xx_hal_rcc.c ****   RCC_OscInitStruct->HSI48State = __HAL_RCC_GET_HSI48_STATE();
1272:Drivers/STM32F0xx_HAL_Driver/Src/stm32f0xx_hal_rcc.c **** #endif /* RCC_HSI48_SUPPORT */
1273:Drivers/STM32F0xx_HAL_Driver/Src/stm32f0xx_hal_rcc.c **** 
1274:Drivers/STM32F0xx_HAL_Driver/Src/stm32f0xx_hal_rcc.c ****   /* Get the PLL configuration -----------------------------------------------*/
1275:Drivers/STM32F0xx_HAL_Driver/Src/stm32f0xx_hal_rcc.c ****   if((RCC->CR &RCC_CR_PLLON) == RCC_CR_PLLON)
 1994              		.loc 1 1275 3 is_stmt 1 view .LVU575
 1995              		.loc 1 1275 10 is_stmt 0 view .LVU576
 1996 0056 0B68     		ldr	r3, [r1]
 1997              		.loc 1 1275 5 view .LVU577
 1998 0058 DB01     		lsls	r3, r3, #7
 1999 005a 2ED5     		bpl	.L180
1276:Drivers/STM32F0xx_HAL_Driver/Src/stm32f0xx_hal_rcc.c ****   {
1277:Drivers/STM32F0xx_HAL_Driver/Src/stm32f0xx_hal_rcc.c ****     RCC_OscInitStruct->PLL.PLLState = RCC_PLL_ON;
 2000              		.loc 1 1277 5 is_stmt 1 view .LVU578
 2001              		.loc 1 1277 37 is_stmt 0 view .LVU579
 2002 005c 0223     		movs	r3, #2
 2003 005e 0362     		str	r3, [r0, #32]
 2004              	.L181:
1278:Drivers/STM32F0xx_HAL_Driver/Src/stm32f0xx_hal_rcc.c ****   }
1279:Drivers/STM32F0xx_HAL_Driver/Src/stm32f0xx_hal_rcc.c ****   else
1280:Drivers/STM32F0xx_HAL_Driver/Src/stm32f0xx_hal_rcc.c ****   {
1281:Drivers/STM32F0xx_HAL_Driver/Src/stm32f0xx_hal_rcc.c ****     RCC_OscInitStruct->PLL.PLLState = RCC_PLL_OFF;
1282:Drivers/STM32F0xx_HAL_Driver/Src/stm32f0xx_hal_rcc.c ****   }
1283:Drivers/STM32F0xx_HAL_Driver/Src/stm32f0xx_hal_rcc.c ****   RCC_OscInitStruct->PLL.PLLSource = (uint32_t)(RCC->CFGR & RCC_CFGR_PLLSRC);
 2005              		.loc 1 1283 3 is_stmt 1 view .LVU580
 2006              		.loc 1 1283 52 is_stmt 0 view .LVU581
 2007 0060 174B     		ldr	r3, .L182
 2008 0062 5A68     		ldr	r2, [r3, #4]
 2009              		.loc 1 1283 38 view .LVU582
 2010 0064 8021     		movs	r1, #128
 2011 0066 4902     		lsls	r1, r1, #9
 2012 0068 0A40     		ands	r2, r1
 2013              		.loc 1 1283 36 view .LVU583
 2014 006a 4262     		str	r2, [r0, #36]
1284:Drivers/STM32F0xx_HAL_Driver/Src/stm32f0xx_hal_rcc.c ****   RCC_OscInitStruct->PLL.PLLMUL = (uint32_t)(RCC->CFGR & RCC_CFGR_PLLMUL);
 2015              		.loc 1 1284 3 is_stmt 1 view .LVU584
 2016              		.loc 1 1284 49 is_stmt 0 view .LVU585
 2017 006c 5A68     		ldr	r2, [r3, #4]
 2018              		.loc 1 1284 35 view .LVU586
 2019 006e F021     		movs	r1, #240
 2020 0070 8903     		lsls	r1, r1, #14
 2021 0072 0A40     		ands	r2, r1
 2022              		.loc 1 1284 33 view .LVU587
 2023 0074 8262     		str	r2, [r0, #40]
1285:Drivers/STM32F0xx_HAL_Driver/Src/stm32f0xx_hal_rcc.c ****   RCC_OscInitStruct->PLL.PREDIV = (uint32_t)(RCC->CFGR2 & RCC_CFGR2_PREDIV);
ARM GAS  /tmp/ccAPLIyc.s 			page 64


 2024              		.loc 1 1285 3 is_stmt 1 view .LVU588
 2025              		.loc 1 1285 49 is_stmt 0 view .LVU589
 2026 0076 DA6A     		ldr	r2, [r3, #44]
 2027              		.loc 1 1285 35 view .LVU590
 2028 0078 0F23     		movs	r3, #15
 2029 007a 1340     		ands	r3, r2
 2030              		.loc 1 1285 33 view .LVU591
 2031 007c C362     		str	r3, [r0, #44]
1286:Drivers/STM32F0xx_HAL_Driver/Src/stm32f0xx_hal_rcc.c **** }
 2032              		.loc 1 1286 1 view .LVU592
 2033              		@ sp needed
 2034 007e 7047     		bx	lr
 2035              	.L168:
1212:Drivers/STM32F0xx_HAL_Driver/Src/stm32f0xx_hal_rcc.c ****   {
 2036              		.loc 1 1212 8 is_stmt 1 view .LVU593
1212:Drivers/STM32F0xx_HAL_Driver/Src/stm32f0xx_hal_rcc.c ****   {
 2037              		.loc 1 1212 15 is_stmt 0 view .LVU594
 2038 0080 0F4B     		ldr	r3, .L182
 2039 0082 1B68     		ldr	r3, [r3]
1212:Drivers/STM32F0xx_HAL_Driver/Src/stm32f0xx_hal_rcc.c ****   {
 2040              		.loc 1 1212 10 view .LVU595
 2041 0084 DB03     		lsls	r3, r3, #15
 2042 0086 02D5     		bpl	.L170
1214:Drivers/STM32F0xx_HAL_Driver/Src/stm32f0xx_hal_rcc.c ****   }
 2043              		.loc 1 1214 5 is_stmt 1 view .LVU596
1214:Drivers/STM32F0xx_HAL_Driver/Src/stm32f0xx_hal_rcc.c ****   }
 2044              		.loc 1 1214 33 is_stmt 0 view .LVU597
 2045 0088 0123     		movs	r3, #1
 2046 008a 4360     		str	r3, [r0, #4]
 2047 008c C0E7     		b	.L169
 2048              	.L170:
1218:Drivers/STM32F0xx_HAL_Driver/Src/stm32f0xx_hal_rcc.c ****   }
 2049              		.loc 1 1218 5 is_stmt 1 view .LVU598
1218:Drivers/STM32F0xx_HAL_Driver/Src/stm32f0xx_hal_rcc.c ****   }
 2050              		.loc 1 1218 33 is_stmt 0 view .LVU599
 2051 008e 0023     		movs	r3, #0
 2052 0090 4360     		str	r3, [r0, #4]
 2053 0092 BDE7     		b	.L169
 2054              	.L171:
1228:Drivers/STM32F0xx_HAL_Driver/Src/stm32f0xx_hal_rcc.c ****   }
 2055              		.loc 1 1228 5 is_stmt 1 view .LVU600
1228:Drivers/STM32F0xx_HAL_Driver/Src/stm32f0xx_hal_rcc.c ****   }
 2056              		.loc 1 1228 33 is_stmt 0 view .LVU601
 2057 0094 0023     		movs	r3, #0
 2058 0096 C360     		str	r3, [r0, #12]
 2059 0098 C0E7     		b	.L172
 2060              	.L173:
1238:Drivers/STM32F0xx_HAL_Driver/Src/stm32f0xx_hal_rcc.c ****   {
 2061              		.loc 1 1238 8 is_stmt 1 view .LVU602
1238:Drivers/STM32F0xx_HAL_Driver/Src/stm32f0xx_hal_rcc.c ****   {
 2062              		.loc 1 1238 15 is_stmt 0 view .LVU603
 2063 009a 094B     		ldr	r3, .L182
 2064 009c 1B6A     		ldr	r3, [r3, #32]
1238:Drivers/STM32F0xx_HAL_Driver/Src/stm32f0xx_hal_rcc.c ****   {
 2065              		.loc 1 1238 10 view .LVU604
 2066 009e DB07     		lsls	r3, r3, #31
 2067 00a0 02D5     		bpl	.L175
ARM GAS  /tmp/ccAPLIyc.s 			page 65


1240:Drivers/STM32F0xx_HAL_Driver/Src/stm32f0xx_hal_rcc.c ****   }
 2068              		.loc 1 1240 5 is_stmt 1 view .LVU605
1240:Drivers/STM32F0xx_HAL_Driver/Src/stm32f0xx_hal_rcc.c ****   }
 2069              		.loc 1 1240 33 is_stmt 0 view .LVU606
 2070 00a2 0123     		movs	r3, #1
 2071 00a4 8360     		str	r3, [r0, #8]
 2072 00a6 C4E7     		b	.L174
 2073              	.L175:
1244:Drivers/STM32F0xx_HAL_Driver/Src/stm32f0xx_hal_rcc.c ****   }
 2074              		.loc 1 1244 5 is_stmt 1 view .LVU607
1244:Drivers/STM32F0xx_HAL_Driver/Src/stm32f0xx_hal_rcc.c ****   }
 2075              		.loc 1 1244 33 is_stmt 0 view .LVU608
 2076 00a8 0023     		movs	r3, #0
 2077 00aa 8360     		str	r3, [r0, #8]
 2078 00ac C1E7     		b	.L174
 2079              	.L176:
1254:Drivers/STM32F0xx_HAL_Driver/Src/stm32f0xx_hal_rcc.c ****   }
 2080              		.loc 1 1254 5 is_stmt 1 view .LVU609
1254:Drivers/STM32F0xx_HAL_Driver/Src/stm32f0xx_hal_rcc.c ****   }
 2081              		.loc 1 1254 33 is_stmt 0 view .LVU610
 2082 00ae 0023     		movs	r3, #0
 2083 00b0 C361     		str	r3, [r0, #28]
 2084 00b2 C4E7     		b	.L177
 2085              	.L178:
1264:Drivers/STM32F0xx_HAL_Driver/Src/stm32f0xx_hal_rcc.c ****   }
 2086              		.loc 1 1264 5 is_stmt 1 view .LVU611
1264:Drivers/STM32F0xx_HAL_Driver/Src/stm32f0xx_hal_rcc.c ****   }
 2087              		.loc 1 1264 35 is_stmt 0 view .LVU612
 2088 00b4 0023     		movs	r3, #0
 2089 00b6 4361     		str	r3, [r0, #20]
 2090 00b8 C7E7     		b	.L179
 2091              	.L180:
1281:Drivers/STM32F0xx_HAL_Driver/Src/stm32f0xx_hal_rcc.c ****   }
 2092              		.loc 1 1281 5 is_stmt 1 view .LVU613
1281:Drivers/STM32F0xx_HAL_Driver/Src/stm32f0xx_hal_rcc.c ****   }
 2093              		.loc 1 1281 37 is_stmt 0 view .LVU614
 2094 00ba 0123     		movs	r3, #1
 2095 00bc 0362     		str	r3, [r0, #32]
 2096 00be CFE7     		b	.L181
 2097              	.L183:
 2098              		.align	2
 2099              	.L182:
 2100 00c0 00100240 		.word	1073876992
 2101              		.cfi_endproc
 2102              	.LFE49:
 2104              		.section	.text.HAL_RCC_GetClockConfig,"ax",%progbits
 2105              		.align	1
 2106              		.global	HAL_RCC_GetClockConfig
 2107              		.syntax unified
 2108              		.code	16
 2109              		.thumb_func
 2110              		.fpu softvfp
 2112              	HAL_RCC_GetClockConfig:
 2113              	.LVL126:
 2114              	.LFB50:
1287:Drivers/STM32F0xx_HAL_Driver/Src/stm32f0xx_hal_rcc.c **** 
1288:Drivers/STM32F0xx_HAL_Driver/Src/stm32f0xx_hal_rcc.c **** /**
ARM GAS  /tmp/ccAPLIyc.s 			page 66


1289:Drivers/STM32F0xx_HAL_Driver/Src/stm32f0xx_hal_rcc.c ****   * @brief  Get the RCC_ClkInitStruct according to the internal 
1290:Drivers/STM32F0xx_HAL_Driver/Src/stm32f0xx_hal_rcc.c ****   * RCC configuration registers.
1291:Drivers/STM32F0xx_HAL_Driver/Src/stm32f0xx_hal_rcc.c ****   * @param  RCC_ClkInitStruct pointer to an RCC_ClkInitTypeDef structure that 
1292:Drivers/STM32F0xx_HAL_Driver/Src/stm32f0xx_hal_rcc.c ****   * contains the current clock configuration.
1293:Drivers/STM32F0xx_HAL_Driver/Src/stm32f0xx_hal_rcc.c ****   * @param  pFLatency Pointer on the Flash Latency.
1294:Drivers/STM32F0xx_HAL_Driver/Src/stm32f0xx_hal_rcc.c ****   * @retval None
1295:Drivers/STM32F0xx_HAL_Driver/Src/stm32f0xx_hal_rcc.c ****   */
1296:Drivers/STM32F0xx_HAL_Driver/Src/stm32f0xx_hal_rcc.c **** void HAL_RCC_GetClockConfig(RCC_ClkInitTypeDef  *RCC_ClkInitStruct, uint32_t *pFLatency)
1297:Drivers/STM32F0xx_HAL_Driver/Src/stm32f0xx_hal_rcc.c **** {
 2115              		.loc 1 1297 1 is_stmt 1 view -0
 2116              		.cfi_startproc
 2117              		@ args = 0, pretend = 0, frame = 0
 2118              		@ frame_needed = 0, uses_anonymous_args = 0
 2119              		.loc 1 1297 1 is_stmt 0 view .LVU616
 2120 0000 10B5     		push	{r4, lr}
 2121              	.LCFI8:
 2122              		.cfi_def_cfa_offset 8
 2123              		.cfi_offset 4, -8
 2124              		.cfi_offset 14, -4
1298:Drivers/STM32F0xx_HAL_Driver/Src/stm32f0xx_hal_rcc.c ****   /* Check the parameters */
1299:Drivers/STM32F0xx_HAL_Driver/Src/stm32f0xx_hal_rcc.c ****   assert_param(RCC_ClkInitStruct != NULL);
 2125              		.loc 1 1299 3 is_stmt 1 view .LVU617
1300:Drivers/STM32F0xx_HAL_Driver/Src/stm32f0xx_hal_rcc.c ****   assert_param(pFLatency != NULL);
 2126              		.loc 1 1300 3 view .LVU618
1301:Drivers/STM32F0xx_HAL_Driver/Src/stm32f0xx_hal_rcc.c **** 
1302:Drivers/STM32F0xx_HAL_Driver/Src/stm32f0xx_hal_rcc.c ****   /* Set all possible values for the Clock type parameter --------------------*/
1303:Drivers/STM32F0xx_HAL_Driver/Src/stm32f0xx_hal_rcc.c ****   RCC_ClkInitStruct->ClockType = RCC_CLOCKTYPE_SYSCLK | RCC_CLOCKTYPE_HCLK | RCC_CLOCKTYPE_PCLK1;
 2127              		.loc 1 1303 3 view .LVU619
 2128              		.loc 1 1303 32 is_stmt 0 view .LVU620
 2129 0002 0723     		movs	r3, #7
 2130 0004 0360     		str	r3, [r0]
1304:Drivers/STM32F0xx_HAL_Driver/Src/stm32f0xx_hal_rcc.c ****   
1305:Drivers/STM32F0xx_HAL_Driver/Src/stm32f0xx_hal_rcc.c ****   /* Get the SYSCLK configuration --------------------------------------------*/ 
1306:Drivers/STM32F0xx_HAL_Driver/Src/stm32f0xx_hal_rcc.c ****   RCC_ClkInitStruct->SYSCLKSource = (uint32_t)(RCC->CFGR & RCC_CFGR_SW);
 2131              		.loc 1 1306 3 is_stmt 1 view .LVU621
 2132              		.loc 1 1306 51 is_stmt 0 view .LVU622
 2133 0006 0A4B     		ldr	r3, .L185
 2134 0008 5C68     		ldr	r4, [r3, #4]
 2135              		.loc 1 1306 37 view .LVU623
 2136 000a 0322     		movs	r2, #3
 2137 000c 2240     		ands	r2, r4
 2138              		.loc 1 1306 35 view .LVU624
 2139 000e 4260     		str	r2, [r0, #4]
1307:Drivers/STM32F0xx_HAL_Driver/Src/stm32f0xx_hal_rcc.c ****   
1308:Drivers/STM32F0xx_HAL_Driver/Src/stm32f0xx_hal_rcc.c ****   /* Get the HCLK configuration ----------------------------------------------*/ 
1309:Drivers/STM32F0xx_HAL_Driver/Src/stm32f0xx_hal_rcc.c ****   RCC_ClkInitStruct->AHBCLKDivider = (uint32_t)(RCC->CFGR & RCC_CFGR_HPRE); 
 2140              		.loc 1 1309 3 is_stmt 1 view .LVU625
 2141              		.loc 1 1309 52 is_stmt 0 view .LVU626
 2142 0010 5C68     		ldr	r4, [r3, #4]
 2143              		.loc 1 1309 38 view .LVU627
 2144 0012 F022     		movs	r2, #240
 2145 0014 2240     		ands	r2, r4
 2146              		.loc 1 1309 36 view .LVU628
 2147 0016 8260     		str	r2, [r0, #8]
1310:Drivers/STM32F0xx_HAL_Driver/Src/stm32f0xx_hal_rcc.c ****   
1311:Drivers/STM32F0xx_HAL_Driver/Src/stm32f0xx_hal_rcc.c ****   /* Get the APB1 configuration ----------------------------------------------*/ 
1312:Drivers/STM32F0xx_HAL_Driver/Src/stm32f0xx_hal_rcc.c ****   RCC_ClkInitStruct->APB1CLKDivider = (uint32_t)(RCC->CFGR & RCC_CFGR_PPRE);   
ARM GAS  /tmp/ccAPLIyc.s 			page 67


 2148              		.loc 1 1312 3 is_stmt 1 view .LVU629
 2149              		.loc 1 1312 53 is_stmt 0 view .LVU630
 2150 0018 5B68     		ldr	r3, [r3, #4]
 2151              		.loc 1 1312 39 view .LVU631
 2152 001a E022     		movs	r2, #224
 2153 001c D200     		lsls	r2, r2, #3
 2154 001e 1340     		ands	r3, r2
 2155              		.loc 1 1312 37 view .LVU632
 2156 0020 C360     		str	r3, [r0, #12]
1313:Drivers/STM32F0xx_HAL_Driver/Src/stm32f0xx_hal_rcc.c ****   /* Get the Flash Wait State (Latency) configuration ------------------------*/   
1314:Drivers/STM32F0xx_HAL_Driver/Src/stm32f0xx_hal_rcc.c ****   *pFLatency = __HAL_FLASH_GET_LATENCY(); 
 2157              		.loc 1 1314 3 is_stmt 1 view .LVU633
 2158              		.loc 1 1314 16 is_stmt 0 view .LVU634
 2159 0022 044B     		ldr	r3, .L185+4
 2160 0024 1A68     		ldr	r2, [r3]
 2161 0026 0123     		movs	r3, #1
 2162 0028 1340     		ands	r3, r2
 2163              		.loc 1 1314 14 view .LVU635
 2164 002a 0B60     		str	r3, [r1]
1315:Drivers/STM32F0xx_HAL_Driver/Src/stm32f0xx_hal_rcc.c **** }
 2165              		.loc 1 1315 1 view .LVU636
 2166              		@ sp needed
 2167 002c 10BD     		pop	{r4, pc}
 2168              	.L186:
 2169 002e C046     		.align	2
 2170              	.L185:
 2171 0030 00100240 		.word	1073876992
 2172 0034 00200240 		.word	1073881088
 2173              		.cfi_endproc
 2174              	.LFE50:
 2176              		.section	.text.HAL_RCC_CSSCallback,"ax",%progbits
 2177              		.align	1
 2178              		.weak	HAL_RCC_CSSCallback
 2179              		.syntax unified
 2180              		.code	16
 2181              		.thumb_func
 2182              		.fpu softvfp
 2184              	HAL_RCC_CSSCallback:
 2185              	.LFB52:
1316:Drivers/STM32F0xx_HAL_Driver/Src/stm32f0xx_hal_rcc.c **** 
1317:Drivers/STM32F0xx_HAL_Driver/Src/stm32f0xx_hal_rcc.c **** /**
1318:Drivers/STM32F0xx_HAL_Driver/Src/stm32f0xx_hal_rcc.c ****   * @brief This function handles the RCC CSS interrupt request.
1319:Drivers/STM32F0xx_HAL_Driver/Src/stm32f0xx_hal_rcc.c ****   * @note This API should be called under the NMI_Handler().
1320:Drivers/STM32F0xx_HAL_Driver/Src/stm32f0xx_hal_rcc.c ****   * @retval None
1321:Drivers/STM32F0xx_HAL_Driver/Src/stm32f0xx_hal_rcc.c ****   */
1322:Drivers/STM32F0xx_HAL_Driver/Src/stm32f0xx_hal_rcc.c **** void HAL_RCC_NMI_IRQHandler(void)
1323:Drivers/STM32F0xx_HAL_Driver/Src/stm32f0xx_hal_rcc.c **** {
1324:Drivers/STM32F0xx_HAL_Driver/Src/stm32f0xx_hal_rcc.c ****   /* Check RCC CSSF flag  */
1325:Drivers/STM32F0xx_HAL_Driver/Src/stm32f0xx_hal_rcc.c ****   if(__HAL_RCC_GET_IT(RCC_IT_CSS))
1326:Drivers/STM32F0xx_HAL_Driver/Src/stm32f0xx_hal_rcc.c ****   {
1327:Drivers/STM32F0xx_HAL_Driver/Src/stm32f0xx_hal_rcc.c ****     /* RCC Clock Security System interrupt user callback */
1328:Drivers/STM32F0xx_HAL_Driver/Src/stm32f0xx_hal_rcc.c ****     HAL_RCC_CSSCallback();
1329:Drivers/STM32F0xx_HAL_Driver/Src/stm32f0xx_hal_rcc.c ****     
1330:Drivers/STM32F0xx_HAL_Driver/Src/stm32f0xx_hal_rcc.c ****     /* Clear RCC CSS pending bit */
1331:Drivers/STM32F0xx_HAL_Driver/Src/stm32f0xx_hal_rcc.c ****     __HAL_RCC_CLEAR_IT(RCC_IT_CSS);
1332:Drivers/STM32F0xx_HAL_Driver/Src/stm32f0xx_hal_rcc.c ****   }
1333:Drivers/STM32F0xx_HAL_Driver/Src/stm32f0xx_hal_rcc.c **** }
ARM GAS  /tmp/ccAPLIyc.s 			page 68


1334:Drivers/STM32F0xx_HAL_Driver/Src/stm32f0xx_hal_rcc.c **** 
1335:Drivers/STM32F0xx_HAL_Driver/Src/stm32f0xx_hal_rcc.c **** /**
1336:Drivers/STM32F0xx_HAL_Driver/Src/stm32f0xx_hal_rcc.c ****   * @brief  RCC Clock Security System interrupt callback
1337:Drivers/STM32F0xx_HAL_Driver/Src/stm32f0xx_hal_rcc.c ****   * @retval none
1338:Drivers/STM32F0xx_HAL_Driver/Src/stm32f0xx_hal_rcc.c ****   */
1339:Drivers/STM32F0xx_HAL_Driver/Src/stm32f0xx_hal_rcc.c **** __weak void HAL_RCC_CSSCallback(void)
1340:Drivers/STM32F0xx_HAL_Driver/Src/stm32f0xx_hal_rcc.c **** {
 2186              		.loc 1 1340 1 is_stmt 1 view -0
 2187              		.cfi_startproc
 2188              		@ args = 0, pretend = 0, frame = 0
 2189              		@ frame_needed = 0, uses_anonymous_args = 0
 2190              		@ link register save eliminated.
1341:Drivers/STM32F0xx_HAL_Driver/Src/stm32f0xx_hal_rcc.c ****   /* NOTE : This function Should not be modified, when the callback is needed,
1342:Drivers/STM32F0xx_HAL_Driver/Src/stm32f0xx_hal_rcc.c ****     the HAL_RCC_CSSCallback could be implemented in the user file
1343:Drivers/STM32F0xx_HAL_Driver/Src/stm32f0xx_hal_rcc.c ****     */ 
1344:Drivers/STM32F0xx_HAL_Driver/Src/stm32f0xx_hal_rcc.c **** }
 2191              		.loc 1 1344 1 view .LVU638
 2192              		@ sp needed
 2193 0000 7047     		bx	lr
 2194              		.cfi_endproc
 2195              	.LFE52:
 2197              		.section	.text.HAL_RCC_NMI_IRQHandler,"ax",%progbits
 2198              		.align	1
 2199              		.global	HAL_RCC_NMI_IRQHandler
 2200              		.syntax unified
 2201              		.code	16
 2202              		.thumb_func
 2203              		.fpu softvfp
 2205              	HAL_RCC_NMI_IRQHandler:
 2206              	.LFB51:
1323:Drivers/STM32F0xx_HAL_Driver/Src/stm32f0xx_hal_rcc.c ****   /* Check RCC CSSF flag  */
 2207              		.loc 1 1323 1 view -0
 2208              		.cfi_startproc
 2209              		@ args = 0, pretend = 0, frame = 0
 2210              		@ frame_needed = 0, uses_anonymous_args = 0
 2211 0000 10B5     		push	{r4, lr}
 2212              	.LCFI9:
 2213              		.cfi_def_cfa_offset 8
 2214              		.cfi_offset 4, -8
 2215              		.cfi_offset 14, -4
1325:Drivers/STM32F0xx_HAL_Driver/Src/stm32f0xx_hal_rcc.c ****   {
 2216              		.loc 1 1325 3 view .LVU640
1325:Drivers/STM32F0xx_HAL_Driver/Src/stm32f0xx_hal_rcc.c ****   {
 2217              		.loc 1 1325 6 is_stmt 0 view .LVU641
 2218 0002 054B     		ldr	r3, .L191
 2219 0004 9B68     		ldr	r3, [r3, #8]
1325:Drivers/STM32F0xx_HAL_Driver/Src/stm32f0xx_hal_rcc.c ****   {
 2220              		.loc 1 1325 5 view .LVU642
 2221 0006 1B06     		lsls	r3, r3, #24
 2222 0008 00D4     		bmi	.L190
 2223              	.L188:
1333:Drivers/STM32F0xx_HAL_Driver/Src/stm32f0xx_hal_rcc.c **** 
 2224              		.loc 1 1333 1 view .LVU643
 2225              		@ sp needed
 2226 000a 10BD     		pop	{r4, pc}
 2227              	.L190:
1328:Drivers/STM32F0xx_HAL_Driver/Src/stm32f0xx_hal_rcc.c ****     
ARM GAS  /tmp/ccAPLIyc.s 			page 69


 2228              		.loc 1 1328 5 is_stmt 1 view .LVU644
 2229 000c FFF7FEFF 		bl	HAL_RCC_CSSCallback
 2230              	.LVL127:
1331:Drivers/STM32F0xx_HAL_Driver/Src/stm32f0xx_hal_rcc.c ****   }
 2231              		.loc 1 1331 5 view .LVU645
 2232 0010 024B     		ldr	r3, .L191+4
 2233 0012 8022     		movs	r2, #128
